

Microchip MPLAB XC8 Assembler V2.41 build 20230208172133 
                                                                                               Mon Oct 02 16:04:56 2023

Microchip MPLAB XC8 C Compiler v2.41 (Free license) build 20230208172133 Og1 
     1                           	processor	18F4620
     2                           	fnconf	rparam,??,?,0
     3                           	pagewidth 120
     4                           	opt	flic
     5                           	psect	idataCOMRAM,global,class=CODE,delta=1,noexec
     6                           	psect	idataBANK0,global,class=CODE,delta=1,noexec
     7                           	psect	smallconst,global,reloc=2,class=SMALLCONST,delta=1,noexec
     8                           	psect	cinit,global,reloc=2,class=CODE,delta=1
     9                           	psect	bssCOMRAM,global,class=COMRAM,space=1,delta=1,lowdata,noexec
    10                           	psect	dataCOMRAM,global,class=COMRAM,space=1,delta=1,lowdata,noexec
    11                           	psect	bssBANK0,global,class=BANK0,space=1,delta=1,lowdata,noexec
    12                           	psect	dataBANK0,global,class=BANK0,space=1,delta=1,lowdata,noexec
    13                           	psect	cstackCOMRAM,global,class=COMRAM,space=1,delta=1,lowdata,noexec
    14                           	psect	text0,global,reloc=2,class=CODE,delta=1
    15                           	psect	text1,global,reloc=2,class=CODE,delta=1
    16                           	psect	text2,global,reloc=2,class=CODE,delta=1
    17                           	psect	text3,global,reloc=2,class=CODE,delta=1
    18                           	psect	text4,global,reloc=2,class=CODE,delta=1
    19                           	psect	text5,global,reloc=2,class=CODE,delta=1
    20                           	psect	text6,global,reloc=2,class=CODE,delta=1
    21                           	psect	text7,global,reloc=2,class=CODE,delta=1
    22                           	psect	text8,global,reloc=2,class=CODE,delta=1
    23                           	psect	text9,global,reloc=2,class=CODE,delta=1
    24                           	psect	text10,global,reloc=2,class=CODE,delta=1
    25                           	psect	text11,global,reloc=2,class=CODE,delta=1
    26                           	psect	text12,global,reloc=2,class=CODE,delta=1
    27                           	psect	text13,global,reloc=2,class=CODE,delta=1
    28                           	psect	text14,global,reloc=2,class=CODE,delta=1
    29                           	psect	text15,global,reloc=2,class=CODE,delta=1
    30                           	psect	text16,global,reloc=2,class=CODE,delta=1,group=1
    31                           	psect	text17,global,reloc=2,class=CODE,delta=1,group=1
    32                           	psect	text18,global,reloc=2,class=CODE,delta=1,group=1
    33                           	psect	text19,global,reloc=2,class=CODE,delta=1,group=1
    34                           	psect	text20,global,reloc=2,class=CODE,delta=1
    35                           	psect	text21,global,reloc=2,class=CODE,delta=1
    36                           	psect	text22,global,reloc=2,class=CODE,delta=1
    37                           	psect	text23,global,reloc=2,class=CODE,delta=1
    38                           	psect	text24,global,reloc=2,class=CODE,delta=1
    39                           	psect	intcode,global,reloc=2,class=CODE,delta=1
    40                           	psect	intcode_body,global,reloc=2,class=CODE,delta=1
    41                           	psect	text26,global,reloc=2,class=CODE,delta=1
    42                           	psect	text27,global,reloc=2,class=CODE,delta=1
    43                           	psect	text28,global,reloc=2,class=CODE,delta=1
    44                           	psect	text29,global,reloc=2,class=CODE,delta=1
    45                           	psect	text30,global,reloc=2,class=CODE,delta=1
    46                           	psect	text31,global,reloc=2,class=CODE,delta=1
    47                           	psect	text32,global,reloc=2,class=CODE,delta=1
    48                           	psect	text33,global,reloc=2,class=CODE,delta=1
    49                           	psect	text34,global,reloc=2,class=CODE,delta=1
    50                           	psect	text35,global,reloc=2,class=CODE,delta=1
    51                           	psect	text36,global,reloc=2,class=CODE,delta=1
    52                           	psect	text37,global,reloc=2,class=CODE,delta=1
    53                           	psect	text38,global,reloc=2,class=CODE,delta=1
    54                           	psect	text39,global,reloc=2,class=CODE,delta=1
    55                           	psect	text40,global,reloc=2,class=CODE,delta=1
    56                           	psect	text41,global,reloc=2,class=CODE,delta=1
    57                           	psect	text42,global,reloc=2,class=CODE,delta=1
    58                           	psect	text43,global,reloc=2,class=CODE,delta=1
    59                           	psect	intsave_regs,global,class=BIGRAM,space=1,delta=1,noexec
    60                           	psect	rparam,global,class=COMRAM,space=1,delta=1,noexec
    61                           	psect	temp,global,ovrld,common,class=COMRAM,space=1,delta=1
    62                           	psect	idloc,global,abs,ovrld,class=IDLOC,space=5,delta=1,noexec
    63                           	psect	config,global,abs,ovrld,class=CONFIG,space=4,delta=1,noexec
    64   000000                     
    65                           ; Version 2.40
    66                           ; Generated 17/11/2021 GMT
    67                           ; 
    68                           ; Copyright © 2021, Microchip Technology Inc. and its subsidiaries ("Microchip")
    69                           ; All rights reserved.
    70                           ; 
    71                           ; This software is developed by Microchip Technology Inc. and its subsidiaries ("Microch
      +                          ip").
    72                           ; 
    73                           ; Redistribution and use in source and binary forms, with or without modification, are
    74                           ; permitted provided that the following conditions are met:
    75                           ; 
    76                           ;     1. Redistributions of source code must retain the above copyright notice, this lis
      +                          t of
    77                           ;        conditions and the following disclaimer.
    78                           ; 
    79                           ;     2. Redistributions in binary form must reproduce the above copyright notice, this 
      +                          list
    80                           ;        of conditions and the following disclaimer in the documentation and/or other
    81                           ;        materials provided with the distribution. Publication is not required when
    82                           ;        this file is used in an embedded application.
    83                           ; 
    84                           ;     3. Microchip's name may not be used to endorse or promote products derived from th
      +                          is
    85                           ;        software without specific prior written permission.
    86                           ; 
    87                           ; THIS SOFTWARE IS PROVIDED BY MICROCHIP "AS IS" AND ANY EXPRESS OR IMPLIED WARRANTIES,
    88                           ; INCLUDING, BUT NOT LIMITED TO, THE IMPLIED WARRANTIES OF MERCHANTABILITY AND FITNESS F
      +                          OR
    89                           ; PURPOSE ARE DISCLAIMED.  IN NO EVENT SHALL MICROCHIP BE LIABLE FOR ANY DIRECT, INDIREC
      +                          T,
    90                           ; INCIDENTAL, SPECIAL, EXEMPLARY, OR CONSEQUENTIAL DAMAGES (INCLUDING BUT NOT LIMITED TO
    91                           ; PROCUREMENT OF SUBSTITUTE GOODS OR SERVICES; LOSS OF USE, DATA OR PROFITS; OR BUSINESS
    92                           ; INTERRUPTION) HOWSOEVER CAUSED AND ON ANY THEORY OF LIABILITY, WHETHER IN CONTRACT, ST
      +                          RICT
    93                           ; LIABILITY, OR TORT (INCLUDING NEGLIGENCE OR OTHERWISE) ARISING IN ANY WAY OUT OF THE U
      +                          SE OF
    94                           ; THIS SOFTWARE, EVEN IF ADVISED OF THE POSSIBILITY OF SUCH DAMAGE.
    95                           ; 
    96                           ; 
    97                           ; Code-generator required, PIC18F4620 Definitions
    98                           ; 
    99                           ; SFR Addresses
   100   000000                     
   101                           	psect	idataCOMRAM
   102   003294                     __pidataCOMRAM:
   103                           	callstack 0
   104                           
   105                           ;initializer for _RB7_Flag
   106   003294  01                 	db	1
   107                           
   108                           ;initializer for _RB6_Flag
   109   003295  01                 	db	1
   110                           
   111                           ;initializer for _RB5_Flag
   112   003296  01                 	db	1
   113                           
   114                           ;initializer for _RB4_Flag
   115   003297  01                 	db	1
   116                           
   117                           ;initializer for _dc_mottor_2
   118   003298  40                 	db	64
   119   003299  50                 	db	80
   120                           
   121                           ;initializer for _dc_mottor_1
   122   00329A  20                 	db	32
   123   00329B  30                 	db	48
   124                           
   125                           ;initializer for _led2
   126   00329C  10                 	db	16
   127                           
   128                           	psect	idataBANK0
   129   00318E                     __pidataBANK0:
   130                           	callstack 0
   131                           
   132                           ;initializer for _array
   133   00318E  00C0               	dw	192
   134   003190  00F9               	dw	249
   135   003192  00A4               	dw	164
   136   003194  00B0               	dw	176
   137   003196  0099               	dw	153
   138   003198  0092               	dw	146
   139   00319A  0082               	dw	130
   140   00319C  00F8               	dw	248
   141   00319E  0080               	dw	128
   142   0031A0  0090               	dw	144
   143                           
   144                           ;initializer for _port_register
   145   0031A2  80                 	db	128
   146   0031A3  0F                 	db	15
   147   0031A4  81                 	db	129
   148   0031A5  0F                 	db	15
   149   0031A6  82                 	db	130
   150   0031A7  0F                 	db	15
   151   0031A8  83                 	db	131
   152   0031A9  0F                 	db	15
   153   0031AA  84                 	db	132
   154   0031AB  0F                 	db	15
   155                           
   156                           ;initializer for _lat_register
   157   0031AC  89                 	db	137
   158   0031AD  0F                 	db	15
   159   0031AE  8A                 	db	138
   160   0031AF  0F                 	db	15
   161   0031B0  8B                 	db	139
   162   0031B1  0F                 	db	15
   163   0031B2  8C                 	db	140
   164   0031B3  0F                 	db	15
   165   0031B4  8D                 	db	141
   166   0031B5  0F                 	db	15
   167                           
   168                           ;initializer for _tris_register
   169   0031B6  92                 	db	146
   170   0031B7  0F                 	db	15
   171   0031B8  93                 	db	147
   172   0031B9  0F                 	db	15
   173   0031BA  94                 	db	148
   174   0031BB  0F                 	db	15
   175   0031BC  95                 	db	149
   176   0031BD  0F                 	db	15
   177   0031BE  96                 	db	150
   178   0031BF  0F                 	db	15
   179                           
   180                           ;initializer for _x
   181   0031C0  2580               	dw	9600
   182   0031C2  00                 	db	0
   183   0031C3  00                 	db	0
   184   0031C4  01                 	db	1
   185   0031C5  00                 	db	0
   186   0031C6  01                 	db	1
   187   0031C7  00                 	db	0
   188   0031C8  00                 	db	0
   189   0031C9  00                 	db	0
   190   0031CA  00                 	db	0
   191   0031CB  00                 	db	0
   192   0031CC  00                 	db	0
   193   0031CD  00                 	db	0
   194   0031CE  00                 	db	0
   195   0031CF  00                 	db	0
   196                           
   197                           	psect	smallconst
   198   001000                     __psmallconst:
   199                           	callstack 0
   200   001000  00                 	db	0
   201   001001                     _btn_values:
   202                           	callstack 0
   203   001001  37                 	db	55
   204   001002  38                 	db	56
   205   001003  39                 	db	57
   206   001004  2F                 	db	47
   207   001005  34                 	db	52
   208   001006  35                 	db	53
   209   001007  36                 	db	54
   210   001008  2A                 	db	42
   211   001009  31                 	db	49
   212   00100A  32                 	db	50
   213   00100B  33                 	db	51
   214   00100C  2D                 	db	45
   215   00100D  23                 	db	35
   216   00100E  30                 	db	48
   217   00100F  3D                 	db	61
   218   001010  2B                 	db	43
   219   001011                     __end_of_btn_values:
   220                           	callstack 0
   221   000000                     _SPBRGH	set	4016
   222   000000                     _SPBRG	set	4015
   223   000000                     _TXREG	set	4013
   224   000000                     _TXSTAbits	set	4012
   225   000000                     _RCREG	set	4014
   226   000000                     _RCSTAbits	set	4011
   227   000000                     _TMR3L	set	4018
   228   000000                     _TMR3H	set	4019
   229   000000                     _TMR1L	set	4046
   230   000000                     _TMR1H	set	4047
   231   000000                     _TMR0L	set	4054
   232   000000                     _TMR0H	set	4055
   233   000000                     _INTCON2bits	set	4081
   234   000000                     _SSPSTATbits	set	4039
   235   000000                     _SSPADD	set	4040
   236   000000                     _SSPCON2bits	set	4037
   237   000000                     _SSPCON1bits	set	4038
   238   000000                     _T3CONbits	set	4017
   239   000000                     _CCPR2H	set	4028
   240   000000                     _CCPR2L	set	4027
   241   000000                     _CCPR1H	set	4031
   242   000000                     _CCPR1L	set	4030
   243   000000                     _CCP2CONbits	set	4026
   244   000000                     _CCP1CONbits	set	4029
   245   000000                     _ADCON1bits	set	4033
   246   000000                     _ADRESL	set	4035
   247   000000                     _ADRESH	set	4036
   248   000000                     _ADCON2bits	set	4032
   249   000000                     _ADCON0bits	set	4034
   250   000000                     _EECON2	set	4007
   251   000000                     _TRISD	set	3989
   252   000000                     _TRISC	set	3988
   253   000000                     _TRISB	set	3987
   254   000000                     _TRISE	set	3990
   255   000000                     _PORTBbits	set	3969
   256   000000                     _TRISCbits	set	3988
   257   000000                     _PIE1bits	set	3997
   258   000000                     _EECON1bits	set	4006
   259   000000                     _EEDATA	set	4008
   260   000000                     _EEADR	set	4009
   261   000000                     _EEADRH	set	4010
   262   000000                     _INTCONbits	set	4082
   263   000000                     _PORTE	set	3972
   264   000000                     _PORTD	set	3971
   265   000000                     _PORTC	set	3970
   266   000000                     _PORTB	set	3969
   267   000000                     _PORTA	set	3968
   268   000000                     _LATA	set	3977
   269   000000                     _TRISA	set	3986
   270   000000                     _PIE2bits	set	4000
   271   000000                     _PIR1bits	set	3998
   272   000000                     _PIR2bits	set	4001
   273   000000                     _LATE	set	3981
   274   000000                     _LATD	set	3980
   275   000000                     _LATC	set	3979
   276   000000                     _LATB	set	3978
   277   000000                     _TMR2	set	4044
   278   000000                     _T2CONbits	set	4042
   279   000000                     _T1CONbits	set	4045
   280   000000                     _T0CONbits	set	4053
   281   000000                     _INTCON3bits	set	4080
   282   000000                     _SSPBUF	set	4041
   283   000000                     _BAUDCONbits	set	4024
   284   001011                     STR_7:
   285   001011  6D                 	db	109	;'m'
   286   001012  6F                 	db	111	;'o'
   287   001013  74                 	db	116	;'t'
   288   001014  6F                 	db	111	;'o'
   289   001015  72                 	db	114	;'r'
   290   001016  31                 	db	49	;'1'
   291   001017  20                 	db	32
   292   001018  6F                 	db	111	;'o'
   293   001019  66                 	db	102	;'f'
   294   00101A  66                 	db	102	;'f'
   295   00101B  20                 	db	32
   296   00101C  0D                 	db	13
   297   00101D  00                 	db	0
   298   00101E                     STR_9:
   299   00101E  6D                 	db	109	;'m'
   300   00101F  6F                 	db	111	;'o'
   301   001020  74                 	db	116	;'t'
   302   001021  6F                 	db	111	;'o'
   303   001022  72                 	db	114	;'r'
   304   001023  32                 	db	50	;'2'
   305   001024  20                 	db	32
   306   001025  6F                 	db	111	;'o'
   307   001026  66                 	db	102	;'f'
   308   001027  66                 	db	102	;'f'
   309   001028  20                 	db	32
   310   001029  0D                 	db	13
   311   00102A  00                 	db	0
   312   00102B                     STR_3:
   313   00102B  6D                 	db	109	;'m'
   314   00102C  6F                 	db	111	;'o'
   315   00102D  74                 	db	116	;'t'
   316   00102E  6F                 	db	111	;'o'
   317   00102F  72                 	db	114	;'r'
   318   001030  31                 	db	49	;'1'
   319   001031  20                 	db	32
   320   001032  6F                 	db	111	;'o'
   321   001033  6E                 	db	110	;'n'
   322   001034  20                 	db	32
   323   001035  0D                 	db	13
   324   001036  00                 	db	0
   325   001037                     STR_5:
   326   001037  6D                 	db	109	;'m'
   327   001038  6F                 	db	111	;'o'
   328   001039  74                 	db	116	;'t'
   329   00103A  6F                 	db	111	;'o'
   330   00103B  72                 	db	114	;'r'
   331   00103C  32                 	db	50	;'2'
   332   00103D  20                 	db	32
   333   00103E  6F                 	db	111	;'o'
   334   00103F  6E                 	db	110	;'n'
   335   001040  20                 	db	32
   336   001041  0D                 	db	13
   337   001042  00                 	db	0
   338   001043                     STR_6:
   339   001043  6C                 	db	108	;'l'
   340   001044  65                 	db	101	;'e'
   341   001045  64                 	db	100	;'d'
   342   001046  31                 	db	49	;'1'
   343   001047  20                 	db	32
   344   001048  6F                 	db	111	;'o'
   345   001049  66                 	db	102	;'f'
   346   00104A  66                 	db	102	;'f'
   347   00104B  20                 	db	32
   348   00104C  0D                 	db	13
   349   00104D  00                 	db	0
   350   00104E                     STR_8:
   351   00104E  6C                 	db	108	;'l'
   352   00104F  65                 	db	101	;'e'
   353   001050  64                 	db	100	;'d'
   354   001051  32                 	db	50	;'2'
   355   001052  20                 	db	32
   356   001053  6F                 	db	111	;'o'
   357   001054  66                 	db	102	;'f'
   358   001055  66                 	db	102	;'f'
   359   001056  20                 	db	32
   360   001057  0D                 	db	13
   361   001058  00                 	db	0
   362   001059                     STR_2:
   363   001059  6C                 	db	108	;'l'
   364   00105A  65                 	db	101	;'e'
   365   00105B  64                 	db	100	;'d'
   366   00105C  31                 	db	49	;'1'
   367   00105D  20                 	db	32
   368   00105E  6F                 	db	111	;'o'
   369   00105F  6E                 	db	110	;'n'
   370   001060  20                 	db	32
   371   001061  0D                 	db	13
   372   001062  00                 	db	0
   373   001063                     STR_4:
   374   001063  6C                 	db	108	;'l'
   375   001064  65                 	db	101	;'e'
   376   001065  64                 	db	100	;'d'
   377   001066  32                 	db	50	;'2'
   378   001067  20                 	db	32
   379   001068  6F                 	db	111	;'o'
   380   001069  6E                 	db	110	;'n'
   381   00106A  20                 	db	32
   382   00106B  0D                 	db	13
   383   00106C  00                 	db	0
   384   00106D  25                 	db	37
   385   00106E  69                 	db	105	;'i'
   386   00106F  00                 	db	0
   387   001070  00                 	db	0	; dummy byte at the end
   388   000000                     
   389                           ; #config settings
   390                           
   391                           	psect	cinit
   392   002FB4                     __pcinit:
   393                           	callstack 0
   394   002FB4                     start_initialization:
   395                           	callstack 0
   396   002FB4                     __initialization:
   397                           	callstack 0
   398                           
   399                           ; Initialize objects allocated to BANK0 (66 bytes)
   400                           ; load TBLPTR registers with __pidataBANK0
   401   002FB4  0E8E               	movlw	low __pidataBANK0
   402   002FB6  6EF6               	movwf	tblptrl,c
   403   002FB8  0E31               	movlw	high __pidataBANK0
   404   002FBA  6EF7               	movwf	tblptrh,c
   405   002FBC  0E00               	movlw	low (__pidataBANK0 shr (0+16))
   406   002FBE  6EF8               	movwf	tblptru,c
   407   002FC0  EE00  F080         	lfsr	0,__pdataBANK0
   408   002FC4  EE10 F042          	lfsr	1,66
   409   002FC8                     copy_data0:
   410   002FC8  0009               	tblrd		*+
   411   002FCA  CFF5 FFEE          	movff	tablat,postinc0
   412   002FCE  50E5               	movf	postdec1,w,c
   413   002FD0  50E1               	movf	fsr1l,w,c
   414   002FD2  E1FA               	bnz	copy_data0
   415                           
   416                           ; Initialize objects allocated to COMRAM (9 bytes)
   417                           ; load TBLPTR registers with __pidataCOMRAM
   418   002FD4  0E94               	movlw	low __pidataCOMRAM
   419   002FD6  6EF6               	movwf	tblptrl,c
   420   002FD8  0E32               	movlw	high __pidataCOMRAM
   421   002FDA  6EF7               	movwf	tblptrh,c
   422   002FDC  0E00               	movlw	low (__pidataCOMRAM shr (0+16))
   423   002FDE  6EF8               	movwf	tblptru,c
   424   002FE0  EE00  F075         	lfsr	0,__pdataCOMRAM
   425   002FE4  EE10 F009          	lfsr	1,9
   426   002FE8                     copy_data1:
   427   002FE8  0009               	tblrd		*+
   428   002FEA  CFF5 FFEE          	movff	tablat,postinc0
   429   002FEE  50E5               	movf	postdec1,w,c
   430   002FF0  50E1               	movf	fsr1l,w,c
   431   002FF2  E1FA               	bnz	copy_data1
   432                           
   433                           ; Clear objects allocated to BANK0 (36 bytes)
   434   002FF4  EE00  F0C2         	lfsr	0,__pbssBANK0
   435   002FF8  0E24               	movlw	36
   436   002FFA                     clear_0:
   437   002FFA  6AEE               	clrf	postinc0,c
   438   002FFC  06E8               	decf	wreg,f,c
   439   002FFE  E1FD               	bnz	clear_0
   440                           
   441                           ; Clear objects allocated to COMRAM (40 bytes)
   442   003000  EE00  F04D         	lfsr	0,__pbssCOMRAM
   443   003004  0E28               	movlw	40
   444   003006                     clear_1:
   445   003006  6AEE               	clrf	postinc0,c
   446   003008  06E8               	decf	wreg,f,c
   447   00300A  E1FD               	bnz	clear_1
   448   00300C                     end_of_initialization:
   449                           	callstack 0
   450   00300C                     __end_of__initialization:
   451                           	callstack 0
   452   00300C  907E               	bcf	int$flags,0,c	;clear compiler interrupt flag (level 1)
   453   00300E  927E               	bcf	int$flags,1,c	;clear compiler interrupt flag (level 2)
   454   003010  0100               	movlb	0
   455   003012  EFD0  F010         	goto	_main	;jump to C main() function
   456                           
   457                           	psect	bssCOMRAM
   458   00004D                     __pbssCOMRAM:
   459                           	callstack 0
   460   00004D                     _timer3_preload:
   461                           	callstack 0
   462   00004D                     	ds	2
   463   00004F                     _timer1_preload:
   464                           	callstack 0
   465   00004F                     	ds	2
   466   000051                     _timer0_preload:
   467                           	callstack 0
   468   000051                     	ds	2
   469   000053                     _INT1_InterruptHandler:
   470                           	callstack 0
   471   000053                     	ds	2
   472   000055                     _INT0_InterruptHandler:
   473                           	callstack 0
   474   000055                     	ds	2
   475   000057                     _I2C_DefaultInterruptHandle:
   476                           	callstack 0
   477   000057                     	ds	2
   478   000059                     _I2C_Report_Write_Collision_InterruptHandler:
   479                           	callstack 0
   480   000059                     	ds	2
   481   00005B                     CCP_Compare_Mode_Set_Value@F3106:
   482                           	callstack 0
   483   00005B                     	ds	2
   484   00005D                     _CCP2_InterruptHandler:
   485                           	callstack 0
   486   00005D                     	ds	2
   487   00005F                     _CCP1_InterruptHandler:
   488                           	callstack 0
   489   00005F                     	ds	2
   490   000061                     _ADC_InterruptHandler:
   491                           	callstack 0
   492   000061                     	ds	2
   493   000063                     _timer2_preload:
   494                           	callstack 0
   495   000063                     	ds	1
   496   000064                     relay_turn_off@F3052:
   497                           	callstack 0
   498   000064                     	ds	1
   499   000065                     relay_turn_on@F3047:
   500                           	callstack 0
   501   000065                     	ds	1
   502   000066                     relay_initialize@F3042:
   503                           	callstack 0
   504   000066                     	ds	1
   505   000067                     led_turn_toggle@F3063:
   506                           	callstack 0
   507   000067                     	ds	1
   508   000068                     led_turn_off@F3058:
   509                           	callstack 0
   510   000068                     	ds	1
   511   000069                     led_turn_on@F3053:
   512                           	callstack 0
   513   000069                     	ds	1
   514   00006A                     led_initialize@F3048:
   515                           	callstack 0
   516   00006A                     	ds	1
   517   00006B                     dc_motor_stop@F3070:
   518                           	callstack 0
   519   00006B                     	ds	1
   520   00006C                     dc_motor_stop@F3068:
   521                           	callstack 0
   522   00006C                     	ds	1
   523   00006D                     dc_motor_move_left@F3063:
   524                           	callstack 0
   525   00006D                     	ds	1
   526   00006E                     dc_motor_move_left@F3061:
   527                           	callstack 0
   528   00006E                     	ds	1
   529   00006F                     dc_motor_move_right@F3056:
   530                           	callstack 0
   531   00006F                     	ds	1
   532   000070                     dc_motor_move_right@F3054:
   533                           	callstack 0
   534   000070                     	ds	1
   535   000071                     dc_motor_initialize@F3049:
   536                           	callstack 0
   537   000071                     	ds	1
   538   000072                     dc_motor_initialize@F3047:
   539                           	callstack 0
   540   000072                     	ds	1
   541   000073                     _c:
   542                           	callstack 0
   543   000073                     	ds	1
   544   000074                     _led1:
   545                           	callstack 0
   546   000074                     	ds	1
   547                           
   548                           	psect	dataCOMRAM
   549   000075                     __pdataCOMRAM:
   550                           	callstack 0
   551   000075                     _RB7_Flag:
   552                           	callstack 0
   553   000075                     	ds	1
   554   000076                     _RB6_Flag:
   555                           	callstack 0
   556   000076                     	ds	1
   557   000077                     _RB5_Flag:
   558                           	callstack 0
   559   000077                     	ds	1
   560   000078                     _RB4_Flag:
   561                           	callstack 0
   562   000078                     	ds	1
   563   000079                     _dc_mottor_2:
   564                           	callstack 0
   565   000079                     	ds	2
   566   00007B                     _dc_mottor_1:
   567                           	callstack 0
   568   00007B                     	ds	2
   569   00007D                     _led2:
   570                           	callstack 0
   571   00007D                     	ds	1
   572                           
   573                           	psect	bssBANK0
   574   0000C2                     __pbssBANK0:
   575                           	callstack 0
   576   0000C2                     _EUSART_OverrunErrorHandler:
   577                           	callstack 0
   578   0000C2                     	ds	2
   579   0000C4                     _EUSART_FramingErrorHandler:
   580                           	callstack 0
   581   0000C4                     	ds	2
   582   0000C6                     _EUSART_RxInterruptHandler:
   583                           	callstack 0
   584   0000C6                     	ds	2
   585   0000C8                     _EUSART_TxInterruptHandler:
   586                           	callstack 0
   587   0000C8                     	ds	2
   588   0000CA                     _TMR3_InterruptHandler:
   589                           	callstack 0
   590   0000CA                     	ds	2
   591   0000CC                     _TMR2_InterruptHandler:
   592                           	callstack 0
   593   0000CC                     	ds	2
   594   0000CE                     _TMR1_InterruptHandler:
   595                           	callstack 0
   596   0000CE                     	ds	2
   597   0000D0                     _TMR0_InterruptHandler:
   598                           	callstack 0
   599   0000D0                     	ds	2
   600   0000D2                     _RB7_InterruptHandler_LOW:
   601                           	callstack 0
   602   0000D2                     	ds	2
   603   0000D4                     _RB7_InterruptHandler_HIGH:
   604                           	callstack 0
   605   0000D4                     	ds	2
   606   0000D6                     _RB6_InterruptHandler_LOW:
   607                           	callstack 0
   608   0000D6                     	ds	2
   609   0000D8                     _RB6_InterruptHandler_HIGH:
   610                           	callstack 0
   611   0000D8                     	ds	2
   612   0000DA                     _RB5_InterruptHandler_LOW:
   613                           	callstack 0
   614   0000DA                     	ds	2
   615   0000DC                     _RB5_InterruptHandler_HIGH:
   616                           	callstack 0
   617   0000DC                     	ds	2
   618   0000DE                     _RB4_InterruptHandler_LOW:
   619                           	callstack 0
   620   0000DE                     	ds	2
   621   0000E0                     _RB4_InterruptHandler_HIGH:
   622                           	callstack 0
   623   0000E0                     	ds	2
   624   0000E2                     _INT2_InterruptHandler:
   625                           	callstack 0
   626   0000E2                     	ds	2
   627   0000E4                     _I2C_Report_Receive_Overflow_InterruptHandle:
   628                           	callstack 0
   629   0000E4                     	ds	2
   630                           
   631                           	psect	dataBANK0
   632   000080                     __pdataBANK0:
   633                           	callstack 0
   634   000080                     _array:
   635                           	callstack 0
   636   000080                     	ds	20
   637   000094                     _port_register:
   638                           	callstack 0
   639   000094                     	ds	10
   640   00009E                     _lat_register:
   641                           	callstack 0
   642   00009E                     	ds	10
   643   0000A8                     _tris_register:
   644                           	callstack 0
   645   0000A8                     	ds	10
   646   0000B2                     _x:
   647                           	callstack 0
   648   0000B2                     	ds	16
   649                           
   650                           	psect	cstackCOMRAM
   651   000001                     __pcstackCOMRAM:
   652                           	callstack 0
   653   000001                     RB4_ISR@RB4_Source:
   654                           	callstack 0
   655   000001                     RB5_ISR@RB5_Source:
   656                           	callstack 0
   657   000001                     RB6_ISR@RB6_Source:
   658                           	callstack 0
   659   000001                     RB7_ISR@RB7_Source:
   660                           	callstack 0
   661                           
   662                           ; 1 bytes @ 0x0
   663   000001                     	ds	1
   664   000002                     ?___fltol:
   665                           	callstack 0
   666   000002                     ?___xxtofl:
   667                           	callstack 0
   668   000002                     gpio_port_direction_intialize@direction:
   669                           	callstack 0
   670   000002                     gpio_port_write_logic@logic:
   671                           	callstack 0
   672   000002                     EUSART_ASYNC_WriteByteBlocking@_data:
   673                           	callstack 0
   674   000002                     gpio_pin_direction_intialize@pin_config:
   675                           	callstack 0
   676   000002                     gpio_pin_write_logic@pin_config:
   677                           	callstack 0
   678   000002                     EUSART_ASYNC_ReadByteBlocking@_data:
   679                           	callstack 0
   680   000002                     EUSART_ASYNC_TX_Init@_eusart:
   681                           	callstack 0
   682   000002                     EUSART_ASYNC_RX_Init@_eusart:
   683                           	callstack 0
   684   000002                     ___fltol@f1:
   685                           	callstack 0
   686   000002                     ___xxtofl@val:
   687                           	callstack 0
   688                           
   689                           ; 4 bytes @ 0x1
   690   000002                     	ds	1
   691   000003                     ??_gpio_port_direction_intialize:
   692   000003                     ??_gpio_port_write_logic:
   693   000003                     EUSART_ASYNC_WriteStringBlocking@_data:
   694                           	callstack 0
   695                           
   696                           ; 2 bytes @ 0x2
   697   000003                     	ds	1
   698   000004                     ??_gpio_pin_direction_intialize:
   699   000004                     gpio_pin_write_logic@logic:
   700                           	callstack 0
   701                           
   702                           ; 1 bytes @ 0x3
   703   000004                     	ds	1
   704   000005                     ??_gpio_pin_write_logic:
   705   000005                     gpio_port_direction_intialize@ret:
   706                           	callstack 0
   707   000005                     gpio_port_write_logic@ret:
   708                           	callstack 0
   709   000005                     EUSART_ASYNC_WriteStringBlocking@str_len:
   710                           	callstack 0
   711                           
   712                           ; 2 bytes @ 0x4
   713   000005                     	ds	1
   714   000006                     ??___fltol:
   715   000006                     ??___xxtofl:
   716   000006                     gpio_port_direction_intialize@port:
   717                           	callstack 0
   718   000006                     gpio_port_write_logic@port:
   719                           	callstack 0
   720                           
   721                           ; 1 bytes @ 0x5
   722   000006                     	ds	1
   723   000007                     ??_EUSART_ASYNC_WriteStringBlocking:
   724                           
   725                           ; 1 bytes @ 0x6
   726   000007                     	ds	2
   727   000009                     EUSART_ASYNC_WriteStringBlocking@ret:
   728                           	callstack 0
   729                           
   730                           ; 1 bytes @ 0x8
   731   000009                     	ds	1
   732   00000A                     gpio_pin_direction_intialize@ret:
   733                           	callstack 0
   734   00000A                     ___fltol@sign1:
   735                           	callstack 0
   736   00000A                     ___xxtofl@sign:
   737                           	callstack 0
   738   00000A                     EUSART_ASYNC_WriteStringBlocking@char_counter:
   739                           	callstack 0
   740                           
   741                           ; 2 bytes @ 0x9
   742   00000A                     	ds	1
   743   00000B                     gpio_pin_write_logic@ret:
   744                           	callstack 0
   745   00000B                     ___fltol@exp1:
   746                           	callstack 0
   747   00000B                     ___xxtofl@exp:
   748                           	callstack 0
   749                           
   750                           ; 1 bytes @ 0xA
   751   00000B                     	ds	1
   752   00000C                     dc_motor_move_right@_dc_motor:
   753                           	callstack 0
   754   00000C                     dc_motor_move_left@_dc_motor:
   755                           	callstack 0
   756   00000C                     dc_motor_stop@_dc_motor:
   757                           	callstack 0
   758   00000C                     led_turn_on@led:
   759                           	callstack 0
   760   00000C                     led_turn_off@led:
   761                           	callstack 0
   762   00000C                     gpio_pin_intialize@pin_config:
   763                           	callstack 0
   764   00000C                     ___xxtofl@arg:
   765                           	callstack 0
   766                           
   767                           ; 4 bytes @ 0xB
   768   00000C                     	ds	2
   769   00000E                     ??_gpio_pin_intialize:
   770   00000E                     ??_dc_motor_move_right:
   771   00000E                     ??_dc_motor_move_left:
   772   00000E                     ??_dc_motor_stop:
   773   00000E                     ??_led_turn_on:
   774   00000E                     ??_led_turn_off:
   775                           
   776                           ; 1 bytes @ 0xD
   777   00000E                     	ds	1
   778   00000F                     dc_motor_move_right@ret:
   779                           	callstack 0
   780   00000F                     dc_motor_move_left@ret:
   781                           	callstack 0
   782   00000F                     dc_motor_stop@ret:
   783                           	callstack 0
   784   00000F                     led_turn_on@object:
   785                           	callstack 0
   786   00000F                     led_turn_off@object:
   787                           	callstack 0
   788   00000F                     gpio_pin_intialize@ret:
   789                           	callstack 0
   790                           
   791                           ; 1 bytes @ 0xE
   792   00000F                     	ds	1
   793   000010                     ?___fldiv:
   794                           	callstack 0
   795   000010                     dc_motor_move_right@motor_con1:
   796                           	callstack 0
   797   000010                     dc_motor_move_left@motor_con1:
   798                           	callstack 0
   799   000010                     dc_motor_stop@motor_con1:
   800                           	callstack 0
   801   000010                     dc_motor_initialize@_dc_motor:
   802                           	callstack 0
   803   000010                     led_initialize@led:
   804                           	callstack 0
   805   000010                     ___fldiv@b:
   806                           	callstack 0
   807                           
   808                           ; 4 bytes @ 0xF
   809   000010                     	ds	1
   810   000011                     dc_motor_move_right@motor_con2:
   811                           	callstack 0
   812   000011                     dc_motor_move_left@motor_con2:
   813                           	callstack 0
   814   000011                     dc_motor_stop@motor_con2:
   815                           	callstack 0
   816                           
   817                           ; 1 bytes @ 0x10
   818   000011                     	ds	1
   819   000012                     ??_dc_motor_initialize:
   820   000012                     ??_led_initialize:
   821                           
   822                           ; 1 bytes @ 0x11
   823   000012                     	ds	1
   824   000013                     dc_motor_initialize@ret:
   825                           	callstack 0
   826   000013                     led_initialize@ret:
   827                           	callstack 0
   828                           
   829                           ; 1 bytes @ 0x12
   830   000013                     	ds	1
   831   000014                     dc_motor_initialize@motor_con1:
   832                           	callstack 0
   833   000014                     led_initialize@object:
   834                           	callstack 0
   835   000014                     ___fldiv@a:
   836                           	callstack 0
   837                           
   838                           ; 4 bytes @ 0x13
   839   000014                     	ds	1
   840   000015                     dc_motor_initialize@motor_con2:
   841                           	callstack 0
   842                           
   843                           ; 1 bytes @ 0x14
   844   000015                     	ds	3
   845   000018                     ??___fldiv:
   846                           
   847                           ; 1 bytes @ 0x17
   848   000018                     	ds	4
   849   00001C                     ___fldiv@rem:
   850                           	callstack 0
   851                           
   852                           ; 4 bytes @ 0x1B
   853   00001C                     	ds	4
   854   000020                     ___fldiv@sign:
   855                           	callstack 0
   856                           
   857                           ; 1 bytes @ 0x1F
   858   000020                     	ds	1
   859   000021                     ___fldiv@new_exp:
   860                           	callstack 0
   861                           
   862                           ; 2 bytes @ 0x20
   863   000021                     	ds	2
   864   000023                     ___fldiv@grs:
   865                           	callstack 0
   866                           
   867                           ; 4 bytes @ 0x22
   868   000023                     	ds	4
   869   000027                     ___fldiv@bexp:
   870                           	callstack 0
   871                           
   872                           ; 1 bytes @ 0x26
   873   000027                     	ds	1
   874   000028                     ___fldiv@aexp:
   875                           	callstack 0
   876                           
   877                           ; 1 bytes @ 0x27
   878   000028                     	ds	1
   879   000029                     ?___fladd:
   880                           	callstack 0
   881   000029                     ___fladd@b:
   882                           	callstack 0
   883                           
   884                           ; 4 bytes @ 0x28
   885   000029                     	ds	4
   886   00002D                     ___fladd@a:
   887                           	callstack 0
   888                           
   889                           ; 4 bytes @ 0x2C
   890   00002D                     	ds	4
   891   000031                     ??___fladd:
   892                           
   893                           ; 1 bytes @ 0x30
   894   000031                     	ds	4
   895   000035                     ___fladd@signs:
   896                           	callstack 0
   897                           
   898                           ; 1 bytes @ 0x34
   899   000035                     	ds	1
   900   000036                     ___fladd@aexp:
   901                           	callstack 0
   902                           
   903                           ; 1 bytes @ 0x35
   904   000036                     	ds	1
   905   000037                     ___fladd@bexp:
   906                           	callstack 0
   907                           
   908                           ; 1 bytes @ 0x36
   909   000037                     	ds	1
   910   000038                     ___fladd@grs:
   911                           	callstack 0
   912                           
   913                           ; 1 bytes @ 0x37
   914   000038                     	ds	1
   915   000039                     EUSART_Baud_Rate_Calculation@_eusart:
   916                           	callstack 0
   917                           
   918                           ; 2 bytes @ 0x38
   919   000039                     	ds	2
   920   00003B                     ??_EUSART_Baud_Rate_Calculation:
   921                           
   922                           ; 1 bytes @ 0x3A
   923   00003B                     	ds	2
   924   00003D                     EUSART_Baud_Rate_Calculation@Baud_Rate_Temp:
   925                           	callstack 0
   926                           
   927                           ; 4 bytes @ 0x3C
   928   00003D                     	ds	4
   929   000041                     _EUSART_Baud_Rate_Calculation$5124:
   930                           	callstack 0
   931                           
   932                           ; 4 bytes @ 0x40
   933   000041                     	ds	4
   934   000045                     EUSART_ASYNC_Init@_eusart:
   935                           	callstack 0
   936                           
   937                           ; 2 bytes @ 0x44
   938   000045                     	ds	2
   939   000047                     EUSART_ASYNC_Init@ret:
   940                           	callstack 0
   941                           
   942                           ; 1 bytes @ 0x46
   943   000047                     	ds	1
   944   000048                     ??_main:
   945                           
   946                           ; 1 bytes @ 0x47
   947   000048                     	ds	2
   948   00004A                     main@z:
   949                           	callstack 0
   950                           
   951                           ; 2 bytes @ 0x49
   952   00004A                     	ds	2
   953   00004C                     main@ret:
   954                           	callstack 0
   955                           
   956                           ; 1 bytes @ 0x4B
   957   00004C                     	ds	1
   958                           
   959 ;;
   960 ;;Main: autosize = 0, tempsize = 2, incstack = 0, save=0
   961 ;;
   962 ;; *************** function _main *****************
   963 ;; Defined at:
   964 ;;		line 78 in file "application.c"
   965 ;; Parameters:    Size  Location     Type
   966 ;;		None
   967 ;; Auto vars:     Size  Location     Type
   968 ;;  z               2   73[COMRAM] unsigned int 
   969 ;;  ret             1   75[COMRAM] unsigned char 
   970 ;;  x               1    0        unsigned char 
   971 ;; Return value:  Size  Location     Type
   972 ;;                  2  1594[None  ] int 
   973 ;; Registers used:
   974 ;;		wreg, fsr2l, fsr2h, status,2, status,0, tblptrl, tblptrh, tblptru, prodl, prodh, cstack
   975 ;; Tracked objects:
   976 ;;		On entry : 0/0
   977 ;;		On exit  : 0/0
   978 ;;		Unchanged: 0/0
   979 ;; Data sizes:     COMRAM   BANK0   BANK1   BANK2   BANK3   BANK4   BANK5   BANK6   BANK7   BANK8   BANK9  BANK10  BANK1
      +1  BANK12  BANK13  BANK14  BANK15
   980 ;;      Params:         0       0       0       0       0       0       0       0       0       0       0       0       
      +0       0       0       0       0
   981 ;;      Locals:         3       0       0       0       0       0       0       0       0       0       0       0       
      +0       0       0       0       0
   982 ;;      Temps:          2       0       0       0       0       0       0       0       0       0       0       0       
      +0       0       0       0       0
   983 ;;      Totals:         5       0       0       0       0       0       0       0       0       0       0       0       
      +0       0       0       0       0
   984 ;;Total ram usage:        5 bytes
   985 ;; Hardware stack levels required when called: 6
   986 ;; This function calls:
   987 ;;		_EUSART_ASYNC_ReadByteBlocking
   988 ;;		_EUSART_ASYNC_WriteStringBlocking
   989 ;;		_application_int
   990 ;;		_dc_motor_move_left
   991 ;;		_dc_motor_move_right
   992 ;;		_dc_motor_stop
   993 ;;		_gpio_port_write_logic
   994 ;;		_led_turn_off
   995 ;;		_led_turn_on
   996 ;; This function is called by:
   997 ;;		Startup code after reset
   998 ;; This function uses a non-reentrant model
   999 ;;
  1000                           
  1001                           	psect	text0
  1002   0021A0                     __ptext0:
  1003                           	callstack 0
  1004   0021A0                     _main:
  1005                           	callstack 25
  1006   0021A0                     
  1007                           ;application.c: 80:     uint32 z = 0;
  1008   0021A0  0E00               	movlw	0
  1009   0021A2  6E4B               	movwf	(main@z+1)^0,c
  1010   0021A4  0E00               	movlw	0
  1011   0021A6  6E4A               	movwf	main@z^0,c
  1012                           
  1013                           ;application.c: 82:     Std_returntype ret = ( Std_returntype)0x00;
  1014   0021A8  0E00               	movlw	0
  1015   0021AA  6E4C               	movwf	main@ret^0,c
  1016   0021AC                     
  1017                           ;application.c: 84:     application_int();
  1018   0021AC  EC5D  F018         	call	_application_int	;wreg free
  1019   0021B0                     l7449:
  1020   0021B0  0E73               	movlw	low _c
  1021   0021B2  6E02               	movwf	EUSART_ASYNC_ReadByteBlocking@_data^0,c
  1022   0021B4  0E00               	movlw	high _c
  1023   0021B6  6E03               	movwf	(EUSART_ASYNC_ReadByteBlocking@_data+1)^0,c
  1024   0021B8  ECE8  F018         	call	_EUSART_ASYNC_ReadByteBlocking	;wreg free
  1025   0021BC                     
  1026                           ;application.c: 117:          if(c== 'g'){
  1027   0021BC  0E67               	movlw	103
  1028   0021BE  1873               	xorwf	_c^0,w,c
  1029   0021C0  A4D8               	btfss	status,2,c
  1030   0021C2  EFE5  F010         	goto	u6941
  1031   0021C6  EFE7  F010         	goto	u6940
  1032   0021CA                     u6941:
  1033   0021CA  EF09  F011         	goto	l7459
  1034   0021CE                     u6940:
  1035   0021CE                     
  1036                           ;application.c: 118:                        led_turn_on(&led1);
  1037   0021CE  0E74               	movlw	low _led1
  1038   0021D0  6E0C               	movwf	led_turn_on@led^0,c
  1039   0021D2  0E00               	movlw	high _led1
  1040   0021D4  6E0D               	movwf	(led_turn_on@led+1)^0,c
  1041   0021D6  EC2E  F017         	call	_led_turn_on	;wreg free
  1042   0021DA  0E7B               	movlw	low _dc_mottor_1
  1043   0021DC  6E0C               	movwf	dc_motor_move_right@_dc_motor^0,c
  1044   0021DE  0E00               	movlw	high _dc_mottor_1
  1045   0021E0  6E0D               	movwf	(dc_motor_move_right@_dc_motor+1)^0,c
  1046   0021E2  ECCD  F014         	call	_dc_motor_move_right	;wreg free
  1047   0021E6  0E59               	movlw	low STR_2
  1048   0021E8  6E03               	movwf	EUSART_ASYNC_WriteStringBlocking@_data^0,c
  1049   0021EA  0E10               	movlw	high STR_2
  1050   0021EC  6E04               	movwf	(EUSART_ASYNC_WriteStringBlocking@_data+1)^0,c
  1051   0021EE  0E00               	movlw	0
  1052   0021F0  6E06               	movwf	(EUSART_ASYNC_WriteStringBlocking@str_len+1)^0,c
  1053   0021F2  0E09               	movlw	9
  1054   0021F4  6E05               	movwf	EUSART_ASYNC_WriteStringBlocking@str_len^0,c
  1055   0021F6  EC0B  F018         	call	_EUSART_ASYNC_WriteStringBlocking	;wreg free
  1056   0021FA  0E2B               	movlw	low STR_3
  1057   0021FC  6E03               	movwf	EUSART_ASYNC_WriteStringBlocking@_data^0,c
  1058   0021FE  0E10               	movlw	high STR_3
  1059   002200  6E04               	movwf	(EUSART_ASYNC_WriteStringBlocking@_data+1)^0,c
  1060   002202  0E00               	movlw	0
  1061   002204  6E06               	movwf	(EUSART_ASYNC_WriteStringBlocking@str_len+1)^0,c
  1062   002206  0E0B               	movlw	11
  1063   002208  6E05               	movwf	EUSART_ASYNC_WriteStringBlocking@str_len^0,c
  1064   00220A  EC0B  F018         	call	_EUSART_ASYNC_WriteStringBlocking	;wreg free
  1065                           
  1066                           ;application.c: 125:          }
  1067   00220E  EFD8  F010         	goto	l7449
  1068   002212                     l7459:
  1069   002212  0E61               	movlw	97
  1070   002214  1873               	xorwf	_c^0,w,c
  1071   002216  A4D8               	btfss	status,2,c
  1072   002218  EF10  F011         	goto	u6951
  1073   00221C  EF12  F011         	goto	u6950
  1074   002220                     u6951:
  1075   002220  EF34  F011         	goto	l7467
  1076   002224                     u6950:
  1077   002224                     
  1078                           ;application.c: 127:                          led_turn_on(&led2);
  1079   002224  0E7D               	movlw	low _led2
  1080   002226  6E0C               	movwf	led_turn_on@led^0,c
  1081   002228  0E00               	movlw	high _led2
  1082   00222A  6E0D               	movwf	(led_turn_on@led+1)^0,c
  1083   00222C  EC2E  F017         	call	_led_turn_on	;wreg free
  1084   002230  0E79               	movlw	low _dc_mottor_2
  1085   002232  6E0C               	movwf	dc_motor_move_left@_dc_motor^0,c
  1086   002234  0E00               	movlw	high _dc_mottor_2
  1087   002236  6E0D               	movwf	(dc_motor_move_left@_dc_motor+1)^0,c
  1088   002238  EC42  F015         	call	_dc_motor_move_left	;wreg free
  1089   00223C  0E63               	movlw	low STR_4
  1090   00223E  6E03               	movwf	EUSART_ASYNC_WriteStringBlocking@_data^0,c
  1091   002240  0E10               	movlw	high STR_4
  1092   002242  6E04               	movwf	(EUSART_ASYNC_WriteStringBlocking@_data+1)^0,c
  1093   002244  0E00               	movlw	0
  1094   002246  6E06               	movwf	(EUSART_ASYNC_WriteStringBlocking@str_len+1)^0,c
  1095   002248  0E09               	movlw	9
  1096   00224A  6E05               	movwf	EUSART_ASYNC_WriteStringBlocking@str_len^0,c
  1097   00224C  EC0B  F018         	call	_EUSART_ASYNC_WriteStringBlocking	;wreg free
  1098   002250  0E37               	movlw	low STR_5
  1099   002252  6E03               	movwf	EUSART_ASYNC_WriteStringBlocking@_data^0,c
  1100   002254  0E10               	movlw	high STR_5
  1101   002256  6E04               	movwf	(EUSART_ASYNC_WriteStringBlocking@_data+1)^0,c
  1102   002258  0E00               	movlw	0
  1103   00225A  6E06               	movwf	(EUSART_ASYNC_WriteStringBlocking@str_len+1)^0,c
  1104   00225C  0E0B               	movlw	11
  1105   00225E  6E05               	movwf	EUSART_ASYNC_WriteStringBlocking@str_len^0,c
  1106   002260  EC0B  F018         	call	_EUSART_ASYNC_WriteStringBlocking	;wreg free
  1107                           
  1108                           ;application.c: 134:         }
  1109   002264  EFD8  F010         	goto	l7449
  1110   002268                     l7467:
  1111   002268  0E7A               	movlw	122
  1112   00226A  1873               	xorwf	_c^0,w,c
  1113   00226C  A4D8               	btfss	status,2,c
  1114   00226E  EF3B  F011         	goto	u6961
  1115   002272  EF3D  F011         	goto	u6960
  1116   002276                     u6961:
  1117   002276  EF5F  F011         	goto	l7475
  1118   00227A                     u6960:
  1119   00227A  0E7B               	movlw	low _dc_mottor_1
  1120   00227C  6E0C               	movwf	dc_motor_stop@_dc_motor^0,c
  1121   00227E  0E00               	movlw	high _dc_mottor_1
  1122   002280  6E0D               	movwf	(dc_motor_stop@_dc_motor+1)^0,c
  1123   002282  EC58  F014         	call	_dc_motor_stop	;wreg free
  1124                           
  1125                           ;application.c: 137:                        led_turn_off(&led1);
  1126   002286  0E74               	movlw	low _led1
  1127   002288  6E0C               	movwf	led_turn_off@led^0,c
  1128   00228A  0E00               	movlw	high _led1
  1129   00228C  6E0D               	movwf	(led_turn_off@led+1)^0,c
  1130   00228E  EC69  F017         	call	_led_turn_off	;wreg free
  1131   002292  0E43               	movlw	low STR_6
  1132   002294  6E03               	movwf	EUSART_ASYNC_WriteStringBlocking@_data^0,c
  1133   002296  0E10               	movlw	high STR_6
  1134   002298  6E04               	movwf	(EUSART_ASYNC_WriteStringBlocking@_data+1)^0,c
  1135   00229A  0E00               	movlw	0
  1136   00229C  6E06               	movwf	(EUSART_ASYNC_WriteStringBlocking@str_len+1)^0,c
  1137   00229E  0E0A               	movlw	10
  1138   0022A0  6E05               	movwf	EUSART_ASYNC_WriteStringBlocking@str_len^0,c
  1139   0022A2  EC0B  F018         	call	_EUSART_ASYNC_WriteStringBlocking	;wreg free
  1140   0022A6  0E11               	movlw	low STR_7
  1141   0022A8  6E03               	movwf	EUSART_ASYNC_WriteStringBlocking@_data^0,c
  1142   0022AA  0E10               	movlw	high STR_7
  1143   0022AC  6E04               	movwf	(EUSART_ASYNC_WriteStringBlocking@_data+1)^0,c
  1144   0022AE  0E00               	movlw	0
  1145   0022B0  6E06               	movwf	(EUSART_ASYNC_WriteStringBlocking@str_len+1)^0,c
  1146   0022B2  0E0C               	movlw	12
  1147   0022B4  6E05               	movwf	EUSART_ASYNC_WriteStringBlocking@str_len^0,c
  1148   0022B6  EC0B  F018         	call	_EUSART_ASYNC_WriteStringBlocking	;wreg free
  1149                           
  1150                           ;application.c: 142:          }
  1151   0022BA  EFD8  F010         	goto	l7449
  1152   0022BE                     l7475:
  1153   0022BE  0E61               	movlw	97
  1154   0022C0  1873               	xorwf	_c^0,w,c
  1155   0022C2  A4D8               	btfss	status,2,c
  1156   0022C4  EF66  F011         	goto	u6971
  1157   0022C8  EF68  F011         	goto	u6970
  1158   0022CC                     u6971:
  1159   0022CC  EF6A  F011         	goto	l7479
  1160   0022D0                     u6970:
  1161   0022D0  EFD8  F010         	goto	l7449
  1162   0022D4                     l7479:
  1163   0022D4  0E72               	movlw	114
  1164   0022D6  1873               	xorwf	_c^0,w,c
  1165   0022D8  A4D8               	btfss	status,2,c
  1166   0022DA  EF71  F011         	goto	u6981
  1167   0022DE  EF73  F011         	goto	u6980
  1168   0022E2                     u6981:
  1169   0022E2  EFBF  F011         	goto	l1599
  1170   0022E6                     u6980:
  1171   0022E6                     
  1172                           ;application.c: 147:       led_turn_off(&led2);
  1173   0022E6  0E7D               	movlw	low _led2
  1174   0022E8  6E0C               	movwf	led_turn_off@led^0,c
  1175   0022EA  0E00               	movlw	high _led2
  1176   0022EC  6E0D               	movwf	(led_turn_off@led+1)^0,c
  1177   0022EE  EC69  F017         	call	_led_turn_off	;wreg free
  1178   0022F2  0E79               	movlw	low _dc_mottor_2
  1179   0022F4  6E0C               	movwf	dc_motor_stop@_dc_motor^0,c
  1180   0022F6  0E00               	movlw	high _dc_mottor_2
  1181   0022F8  6E0D               	movwf	(dc_motor_stop@_dc_motor+1)^0,c
  1182   0022FA  EC58  F014         	call	_dc_motor_stop	;wreg free
  1183   0022FE  0E4E               	movlw	low STR_8
  1184   002300  6E03               	movwf	EUSART_ASYNC_WriteStringBlocking@_data^0,c
  1185   002302  0E10               	movlw	high STR_8
  1186   002304  6E04               	movwf	(EUSART_ASYNC_WriteStringBlocking@_data+1)^0,c
  1187   002306  0E00               	movlw	0
  1188   002308  6E06               	movwf	(EUSART_ASYNC_WriteStringBlocking@str_len+1)^0,c
  1189   00230A  0E0A               	movlw	10
  1190   00230C  6E05               	movwf	EUSART_ASYNC_WriteStringBlocking@str_len^0,c
  1191   00230E  EC0B  F018         	call	_EUSART_ASYNC_WriteStringBlocking	;wreg free
  1192   002312  0E1E               	movlw	low STR_9
  1193   002314  6E03               	movwf	EUSART_ASYNC_WriteStringBlocking@_data^0,c
  1194   002316  0E10               	movlw	high STR_9
  1195   002318  6E04               	movwf	(EUSART_ASYNC_WriteStringBlocking@_data+1)^0,c
  1196   00231A  0E00               	movlw	0
  1197   00231C  6E06               	movwf	(EUSART_ASYNC_WriteStringBlocking@str_len+1)^0,c
  1198   00231E  0E0C               	movlw	12
  1199   002320  6E05               	movwf	EUSART_ASYNC_WriteStringBlocking@str_len^0,c
  1200   002322  EC0B  F018         	call	_EUSART_ASYNC_WriteStringBlocking	;wreg free
  1201   002326                     
  1202                           ;application.c: 154:                   for(z=0 ;z<10 ;z++){
  1203   002326  0E00               	movlw	0
  1204   002328  6E4B               	movwf	(main@z+1)^0,c
  1205   00232A  0E00               	movlw	0
  1206   00232C  6E4A               	movwf	main@z^0,c
  1207   00232E                     l7493:
  1208   00232E  90D8               	bcf	status,0,c
  1209   002330  344A               	rlcf	main@z^0,w,c
  1210   002332  6ED9               	movwf	fsr2l,c
  1211   002334  344B               	rlcf	(main@z+1)^0,w,c
  1212   002336  6EDA               	movwf	fsr2h,c
  1213   002338  0E80               	movlw	low _array
  1214   00233A  26D9               	addwf	fsr2l,f,c
  1215   00233C  0E00               	movlw	high _array
  1216   00233E  22DA               	addwfc	fsr2h,f,c
  1217   002340  50DF               	movf	indf2,w,c
  1218   002342  6E02               	movwf	gpio_port_write_logic@logic^0,c
  1219   002344  0E03               	movlw	3
  1220   002346  EC81  F018         	call	_gpio_port_write_logic
  1221   00234A                     
  1222                           ;application.c: 156:                    _delay((unsigned long)((250)*(8000000/4000.0)));
  1223   00234A  0E03               	movlw	3
  1224   00234C  6E49               	movwf	(??_main+1)^0,c
  1225   00234E  0E8A               	movlw	138
  1226   002350  6E48               	movwf	??_main^0,c
  1227   002352  0E56               	movlw	86
  1228   002354                     u7007:
  1229   002354  2EE8               	decfsz	wreg,f,c
  1230   002356  D7FE               	bra	u7007
  1231   002358  2E48               	decfsz	??_main^0,f,c
  1232   00235A  D7FC               	bra	u7007
  1233   00235C  2E49               	decfsz	(??_main+1)^0,f,c
  1234   00235E  D7FA               	bra	u7007
  1235   002360                     
  1236                           ;application.c: 157:               }
  1237   002360  4A4A               	infsnz	main@z^0,f,c
  1238   002362  2A4B               	incf	(main@z+1)^0,f,c
  1239   002364  504B               	movf	(main@z+1)^0,w,c
  1240   002366  E109               	bnz	u6990
  1241   002368  0E0A               	movlw	10
  1242   00236A  5C4A               	subwf	main@z^0,w,c
  1243   00236C  A0D8               	btfss	status,0,c
  1244   00236E  EFBB  F011         	goto	u6991
  1245   002372  EFBD  F011         	goto	u6990
  1246   002376                     u6991:
  1247   002376  EF97  F011         	goto	l7493
  1248   00237A                     u6990:
  1249   00237A  EFD8  F010         	goto	l7449
  1250   00237E                     l1599:
  1251   00237E  EFD8  F010         	goto	l7449
  1252   002382  EF07  F000         	goto	start
  1253   002386                     __end_of_main:
  1254                           	callstack 0
  1255                           
  1256 ;; *************** function _led_turn_on *****************
  1257 ;; Defined at:
  1258 ;;		line 35 in file "mcal_layer/ecu_led.c"
  1259 ;; Parameters:    Size  Location     Type
  1260 ;;  led             2   11[COMRAM] PTR const struct .
  1261 ;;		 -> led2(1), led1(1), 
  1262 ;; Auto vars:     Size  Location     Type
  1263 ;;  object          1   14[COMRAM] struct .
  1264 ;;  ret             1    0        unsigned char 
  1265 ;; Return value:  Size  Location     Type
  1266 ;;                  1    wreg      unsigned char 
  1267 ;; Registers used:
  1268 ;;		wreg, fsr2l, fsr2h, status,2, status,0, prodl, prodh, cstack
  1269 ;; Tracked objects:
  1270 ;;		On entry : 0/0
  1271 ;;		On exit  : 0/0
  1272 ;;		Unchanged: 0/0
  1273 ;; Data sizes:     COMRAM   BANK0   BANK1   BANK2   BANK3   BANK4   BANK5   BANK6   BANK7   BANK8   BANK9  BANK10  BANK1
      +1  BANK12  BANK13  BANK14  BANK15
  1274 ;;      Params:         2       0       0       0       0       0       0       0       0       0       0       0       
      +0       0       0       0       0
  1275 ;;      Locals:         1       0       0       0       0       0       0       0       0       0       0       0       
      +0       0       0       0       0
  1276 ;;      Temps:          1       0       0       0       0       0       0       0       0       0       0       0       
      +0       0       0       0       0
  1277 ;;      Totals:         4       0       0       0       0       0       0       0       0       0       0       0       
      +0       0       0       0       0
  1278 ;;Total ram usage:        4 bytes
  1279 ;; Hardware stack levels used: 1
  1280 ;; Hardware stack levels required when called: 3
  1281 ;; This function calls:
  1282 ;;		_gpio_pin_write_logic
  1283 ;; This function is called by:
  1284 ;;		_main
  1285 ;; This function uses a non-reentrant model
  1286 ;;
  1287                           
  1288                           	psect	text1
  1289   002E5C                     __ptext1:
  1290                           	callstack 0
  1291   002E5C                     _led_turn_on:
  1292                           	callstack 27
  1293   002E5C                     
  1294                           ;mcal_layer/ecu_led.c: 37:     if(((void*)0) == led){
  1295   002E5C  500C               	movf	led_turn_on@led^0,w,c
  1296   002E5E  100D               	iorwf	(led_turn_on@led+1)^0,w,c
  1297   002E60  A4D8               	btfss	status,2,c
  1298   002E62  EF35  F017         	goto	u5251
  1299   002E66  EF37  F017         	goto	u5250
  1300   002E6A                     u5251:
  1301   002E6A  EF39  F017         	goto	l281
  1302   002E6E                     u5250:
  1303   002E6E                     
  1304                           ;mcal_layer/ecu_led.c: 39:     }
  1305   002E6E  EF68  F017         	goto	l285
  1306   002E72                     l281:
  1307                           
  1308                           ;mcal_layer/ecu_led.c: 41:         pin_config_t object = {.port=led->port_name,.pin=led-
      +                          >pin, .direction=OUTPUT,.logic=led->led_status};
  1309   002E72  C069  F00F         	movff	led_turn_on@F3053,led_turn_on@object
  1310   002E76  C00C  FFD9         	movff	led_turn_on@led,fsr2l
  1311   002E7A  C00D  FFDA         	movff	led_turn_on@led+1,fsr2h
  1312   002E7E  50DF               	movf	223,w,c
  1313   002E80  0B0F               	andlw	15
  1314   002E82  6E0E               	movwf	??_led_turn_on^0,c
  1315   002E84  500F               	movf	led_turn_on@object^0,w,c
  1316   002E86  180E               	xorwf	??_led_turn_on^0,w,c
  1317   002E88  0BF8               	andlw	-8
  1318   002E8A  180E               	xorwf	??_led_turn_on^0,w,c
  1319   002E8C  6E0F               	movwf	led_turn_on@object^0,c
  1320   002E8E  C00C  FFD9         	movff	led_turn_on@led,fsr2l
  1321   002E92  C00D  FFDA         	movff	led_turn_on@led+1,fsr2h
  1322   002E96  38DF               	swapf	223,w,c
  1323   002E98  0B07               	andlw	7
  1324   002E9A  6E0E               	movwf	??_led_turn_on^0,c
  1325   002E9C  460E               	rlncf	??_led_turn_on^0,f,c
  1326   002E9E  460E               	rlncf	??_led_turn_on^0,f,c
  1327   002EA0  460E               	rlncf	??_led_turn_on^0,f,c
  1328   002EA2  500F               	movf	led_turn_on@object^0,w,c
  1329   002EA4  180E               	xorwf	??_led_turn_on^0,w,c
  1330   002EA6  0BC7               	andlw	-57
  1331   002EA8  180E               	xorwf	??_led_turn_on^0,w,c
  1332   002EAA  6E0F               	movwf	led_turn_on@object^0,c
  1333   002EAC  9C0F               	bcf	led_turn_on@object^0,6,c
  1334   002EAE  C00C  FFD9         	movff	led_turn_on@led,fsr2l
  1335   002EB2  C00D  FFDA         	movff	led_turn_on@led+1,fsr2h
  1336   002EB6  AEDF               	btfss	indf2,7,c
  1337   002EB8  D002               	bra	u5265
  1338   002EBA  8E0F               	bsf	led_turn_on@object^0,7,c
  1339   002EBC  D001               	bra	u5267
  1340   002EBE                     u5265:
  1341   002EBE  9E0F               	bcf	led_turn_on@object^0,7,c
  1342   002EC0                     u5267:
  1343   002EC0                     
  1344                           ;mcal_layer/ecu_led.c: 42:        gpio_pin_write_logic(&object , HIGH );
  1345   002EC0  0E0F               	movlw	low led_turn_on@object
  1346   002EC2  6E02               	movwf	gpio_pin_write_logic@pin_config^0,c
  1347   002EC4  0E00               	movlw	high led_turn_on@object
  1348   002EC6  6E03               	movwf	(gpio_pin_write_logic@pin_config+1)^0,c
  1349   002EC8  0E01               	movlw	1
  1350   002ECA  6E04               	movwf	gpio_pin_write_logic@logic^0,c
  1351   002ECC  EC3F  F013         	call	_gpio_pin_write_logic	;wreg free
  1352   002ED0                     l285:
  1353   002ED0  0012               	return		;funcret
  1354   002ED2                     __end_of_led_turn_on:
  1355                           	callstack 0
  1356                           
  1357 ;; *************** function _led_turn_off *****************
  1358 ;; Defined at:
  1359 ;;		line 57 in file "mcal_layer/ecu_led.c"
  1360 ;; Parameters:    Size  Location     Type
  1361 ;;  led             2   11[COMRAM] PTR const struct .
  1362 ;;		 -> led2(1), led1(1), 
  1363 ;; Auto vars:     Size  Location     Type
  1364 ;;  object          1   14[COMRAM] struct .
  1365 ;;  ret             1    0        unsigned char 
  1366 ;; Return value:  Size  Location     Type
  1367 ;;                  1    wreg      unsigned char 
  1368 ;; Registers used:
  1369 ;;		wreg, fsr2l, fsr2h, status,2, status,0, prodl, prodh, cstack
  1370 ;; Tracked objects:
  1371 ;;		On entry : 0/0
  1372 ;;		On exit  : 0/0
  1373 ;;		Unchanged: 0/0
  1374 ;; Data sizes:     COMRAM   BANK0   BANK1   BANK2   BANK3   BANK4   BANK5   BANK6   BANK7   BANK8   BANK9  BANK10  BANK1
      +1  BANK12  BANK13  BANK14  BANK15
  1375 ;;      Params:         2       0       0       0       0       0       0       0       0       0       0       0       
      +0       0       0       0       0
  1376 ;;      Locals:         1       0       0       0       0       0       0       0       0       0       0       0       
      +0       0       0       0       0
  1377 ;;      Temps:          1       0       0       0       0       0       0       0       0       0       0       0       
      +0       0       0       0       0
  1378 ;;      Totals:         4       0       0       0       0       0       0       0       0       0       0       0       
      +0       0       0       0       0
  1379 ;;Total ram usage:        4 bytes
  1380 ;; Hardware stack levels used: 1
  1381 ;; Hardware stack levels required when called: 3
  1382 ;; This function calls:
  1383 ;;		_gpio_pin_write_logic
  1384 ;; This function is called by:
  1385 ;;		_main
  1386 ;; This function uses a non-reentrant model
  1387 ;;
  1388                           
  1389                           	psect	text2
  1390   002ED2                     __ptext2:
  1391                           	callstack 0
  1392   002ED2                     _led_turn_off:
  1393                           	callstack 27
  1394   002ED2                     
  1395                           ;mcal_layer/ecu_led.c: 60:     if(((void*)0) == led){
  1396   002ED2  500C               	movf	led_turn_off@led^0,w,c
  1397   002ED4  100D               	iorwf	(led_turn_off@led+1)^0,w,c
  1398   002ED6  A4D8               	btfss	status,2,c
  1399   002ED8  EF70  F017         	goto	u5271
  1400   002EDC  EF72  F017         	goto	u5270
  1401   002EE0                     u5271:
  1402   002EE0  EF74  F017         	goto	l288
  1403   002EE4                     u5270:
  1404   002EE4                     
  1405                           ;mcal_layer/ecu_led.c: 62:     }
  1406   002EE4  EFA3  F017         	goto	l292
  1407   002EE8                     l288:
  1408                           
  1409                           ;mcal_layer/ecu_led.c: 64:       pin_config_t object = {.port=led->port_name,.pin=led->p
      +                          in, .direction=OUTPUT,.logic=led->led_status};
  1410   002EE8  C068  F00F         	movff	led_turn_off@F3058,led_turn_off@object
  1411   002EEC  C00C  FFD9         	movff	led_turn_off@led,fsr2l
  1412   002EF0  C00D  FFDA         	movff	led_turn_off@led+1,fsr2h
  1413   002EF4  50DF               	movf	223,w,c
  1414   002EF6  0B0F               	andlw	15
  1415   002EF8  6E0E               	movwf	??_led_turn_off^0,c
  1416   002EFA  500F               	movf	led_turn_off@object^0,w,c
  1417   002EFC  180E               	xorwf	??_led_turn_off^0,w,c
  1418   002EFE  0BF8               	andlw	-8
  1419   002F00  180E               	xorwf	??_led_turn_off^0,w,c
  1420   002F02  6E0F               	movwf	led_turn_off@object^0,c
  1421   002F04  C00C  FFD9         	movff	led_turn_off@led,fsr2l
  1422   002F08  C00D  FFDA         	movff	led_turn_off@led+1,fsr2h
  1423   002F0C  38DF               	swapf	223,w,c
  1424   002F0E  0B07               	andlw	7
  1425   002F10  6E0E               	movwf	??_led_turn_off^0,c
  1426   002F12  460E               	rlncf	??_led_turn_off^0,f,c
  1427   002F14  460E               	rlncf	??_led_turn_off^0,f,c
  1428   002F16  460E               	rlncf	??_led_turn_off^0,f,c
  1429   002F18  500F               	movf	led_turn_off@object^0,w,c
  1430   002F1A  180E               	xorwf	??_led_turn_off^0,w,c
  1431   002F1C  0BC7               	andlw	-57
  1432   002F1E  180E               	xorwf	??_led_turn_off^0,w,c
  1433   002F20  6E0F               	movwf	led_turn_off@object^0,c
  1434   002F22  9C0F               	bcf	led_turn_off@object^0,6,c
  1435   002F24  C00C  FFD9         	movff	led_turn_off@led,fsr2l
  1436   002F28  C00D  FFDA         	movff	led_turn_off@led+1,fsr2h
  1437   002F2C  AEDF               	btfss	indf2,7,c
  1438   002F2E  D002               	bra	u5285
  1439   002F30  8E0F               	bsf	led_turn_off@object^0,7,c
  1440   002F32  D001               	bra	u5287
  1441   002F34                     u5285:
  1442   002F34  9E0F               	bcf	led_turn_off@object^0,7,c
  1443   002F36                     u5287:
  1444   002F36                     
  1445                           ;mcal_layer/ecu_led.c: 65:        gpio_pin_write_logic(&object , LOW );
  1446   002F36  0E0F               	movlw	low led_turn_off@object
  1447   002F38  6E02               	movwf	gpio_pin_write_logic@pin_config^0,c
  1448   002F3A  0E00               	movlw	high led_turn_off@object
  1449   002F3C  6E03               	movwf	(gpio_pin_write_logic@pin_config+1)^0,c
  1450   002F3E  0E00               	movlw	0
  1451   002F40  6E04               	movwf	gpio_pin_write_logic@logic^0,c
  1452   002F42  EC3F  F013         	call	_gpio_pin_write_logic	;wreg free
  1453   002F46                     l292:
  1454   002F46  0012               	return		;funcret
  1455   002F48                     __end_of_led_turn_off:
  1456                           	callstack 0
  1457                           
  1458 ;; *************** function _gpio_port_write_logic *****************
  1459 ;; Defined at:
  1460 ;;		line 173 in file "mcal_layer/GPIO/hal_gpio.c"
  1461 ;; Parameters:    Size  Location     Type
  1462 ;;  port            1    wreg     enum E2986
  1463 ;;  logic           1    1[COMRAM] unsigned char 
  1464 ;; Auto vars:     Size  Location     Type
  1465 ;;  port            1    5[COMRAM] enum E2986
  1466 ;;  ret             1    4[COMRAM] unsigned char 
  1467 ;; Return value:  Size  Location     Type
  1468 ;;                  1    wreg      unsigned char 
  1469 ;; Registers used:
  1470 ;;		wreg, fsr2l, fsr2h, status,2, status,0, prodl, prodh
  1471 ;; Tracked objects:
  1472 ;;		On entry : 0/0
  1473 ;;		On exit  : 0/0
  1474 ;;		Unchanged: 0/0
  1475 ;; Data sizes:     COMRAM   BANK0   BANK1   BANK2   BANK3   BANK4   BANK5   BANK6   BANK7   BANK8   BANK9  BANK10  BANK1
      +1  BANK12  BANK13  BANK14  BANK15
  1476 ;;      Params:         1       0       0       0       0       0       0       0       0       0       0       0       
      +0       0       0       0       0
  1477 ;;      Locals:         2       0       0       0       0       0       0       0       0       0       0       0       
      +0       0       0       0       0
  1478 ;;      Temps:          2       0       0       0       0       0       0       0       0       0       0       0       
      +0       0       0       0       0
  1479 ;;      Totals:         5       0       0       0       0       0       0       0       0       0       0       0       
      +0       0       0       0       0
  1480 ;;Total ram usage:        5 bytes
  1481 ;; Hardware stack levels used: 1
  1482 ;; Hardware stack levels required when called: 2
  1483 ;; This function calls:
  1484 ;;		Nothing
  1485 ;; This function is called by:
  1486 ;;		_main
  1487 ;; This function uses a non-reentrant model
  1488 ;;
  1489                           
  1490                           	psect	text3
  1491   003102                     __ptext3:
  1492                           	callstack 0
  1493   003102                     _gpio_port_write_logic:
  1494                           	callstack 28
  1495                           
  1496                           ;incstack = 0
  1497                           ;gpio_port_write_logic@port stored from wreg
  1498   003102  6E06               	movwf	gpio_port_write_logic@port^0,c
  1499   003104                     
  1500                           ;mcal_layer/GPIO/hal_gpio.c: 175:          Std_returntype ret = ( Std_returntype)0x01 ;
  1501   003104  0E01               	movlw	1
  1502   003106  6E05               	movwf	gpio_port_write_logic@ret^0,c
  1503   003108                     
  1504                           ;mcal_layer/GPIO/hal_gpio.c: 176:           if(port>5 ){
  1505   003108  0E05               	movlw	5
  1506   00310A  6406               	cpfsgt	gpio_port_write_logic@port^0,c
  1507   00310C  EF8A  F018         	goto	u5291
  1508   003110  EF8C  F018         	goto	u5290
  1509   003114                     u5291:
  1510   003114  EF90  F018         	goto	l6267
  1511   003118                     u5290:
  1512   003118                     
  1513                           ;mcal_layer/GPIO/hal_gpio.c: 177:              ret= ( Std_returntype)0x00 ; }
  1514   003118  0E00               	movlw	0
  1515   00311A  6E05               	movwf	gpio_port_write_logic@ret^0,c
  1516   00311C  EFA2  F018         	goto	l6269
  1517   003120                     l6267:
  1518                           
  1519                           ;mcal_layer/GPIO/hal_gpio.c: 179:              *lat_register[port]=logic;
  1520   003120  5006               	movf	gpio_port_write_logic@port^0,w,c
  1521   003122  0D02               	mullw	2
  1522   003124  0E9E               	movlw	low _lat_register
  1523   003126  24F3               	addwf	243,w,c
  1524   003128  6ED9               	movwf	fsr2l,c
  1525   00312A  0E00               	movlw	high _lat_register
  1526   00312C  20F4               	addwfc	prodh,w,c
  1527   00312E  6EDA               	movwf	fsr2h,c
  1528   003130  CFDE F003          	movff	postinc2,??_gpio_port_write_logic
  1529   003134  CFDD F004          	movff	postdec2,??_gpio_port_write_logic+1
  1530   003138  C003  FFD9         	movff	??_gpio_port_write_logic,fsr2l
  1531   00313C  C004  FFDA         	movff	??_gpio_port_write_logic+1,fsr2h
  1532   003140  C002  FFDF         	movff	gpio_port_write_logic@logic,indf2
  1533   003144                     l6269:
  1534                           
  1535                           ;mcal_layer/GPIO/hal_gpio.c: 181:     return ret;
  1536   003144  5005               	movf	gpio_port_write_logic@ret^0,w,c
  1537   003146  0012               	return		;funcret
  1538   003148                     __end_of_gpio_port_write_logic:
  1539                           	callstack 0
  1540                           
  1541 ;; *************** function _dc_motor_stop *****************
  1542 ;; Defined at:
  1543 ;;		line 85 in file "mcal_layer/ecu_DC mottor.c"
  1544 ;; Parameters:    Size  Location     Type
  1545 ;;  _dc_motor       2   11[COMRAM] PTR const struct .
  1546 ;;		 -> dc_mottor_2(2), dc_mottor_1(2), 
  1547 ;; Auto vars:     Size  Location     Type
  1548 ;;  motor_con2      1   16[COMRAM] struct .
  1549 ;;  motor_con1      1   15[COMRAM] struct .
  1550 ;;  ret             1   14[COMRAM] unsigned char 
  1551 ;; Return value:  Size  Location     Type
  1552 ;;                  1    wreg      unsigned char 
  1553 ;; Registers used:
  1554 ;;		wreg, fsr2l, fsr2h, status,2, status,0, prodl, prodh, cstack
  1555 ;; Tracked objects:
  1556 ;;		On entry : 0/0
  1557 ;;		On exit  : 0/0
  1558 ;;		Unchanged: 0/0
  1559 ;; Data sizes:     COMRAM   BANK0   BANK1   BANK2   BANK3   BANK4   BANK5   BANK6   BANK7   BANK8   BANK9  BANK10  BANK1
      +1  BANK12  BANK13  BANK14  BANK15
  1560 ;;      Params:         2       0       0       0       0       0       0       0       0       0       0       0       
      +0       0       0       0       0
  1561 ;;      Locals:         3       0       0       0       0       0       0       0       0       0       0       0       
      +0       0       0       0       0
  1562 ;;      Temps:          1       0       0       0       0       0       0       0       0       0       0       0       
      +0       0       0       0       0
  1563 ;;      Totals:         6       0       0       0       0       0       0       0       0       0       0       0       
      +0       0       0       0       0
  1564 ;;Total ram usage:        6 bytes
  1565 ;; Hardware stack levels used: 1
  1566 ;; Hardware stack levels required when called: 3
  1567 ;; This function calls:
  1568 ;;		_gpio_pin_write_logic
  1569 ;; This function is called by:
  1570 ;;		_main
  1571 ;; This function uses a non-reentrant model
  1572 ;;
  1573                           
  1574                           	psect	text4
  1575   0028B0                     __ptext4:
  1576                           	callstack 0
  1577   0028B0                     _dc_motor_stop:
  1578                           	callstack 27
  1579   0028B0                     
  1580                           ;mcal_layer/ecu_DC mottor.c: 92: Std_returntype ret =( Std_returntype)0x01;
  1581   0028B0  0E01               	movlw	1
  1582   0028B2  6E0F               	movwf	dc_motor_stop@ret^0,c
  1583   0028B4                     
  1584                           ;mcal_layer/ecu_DC mottor.c: 94:     if(((void*)0) == _dc_motor){
  1585   0028B4  500C               	movf	dc_motor_stop@_dc_motor^0,w,c
  1586   0028B6  100D               	iorwf	(dc_motor_stop@_dc_motor+1)^0,w,c
  1587   0028B8  A4D8               	btfss	status,2,c
  1588   0028BA  EF61  F014         	goto	u5161
  1589   0028BE  EF63  F014         	goto	u5160
  1590   0028C2                     u5161:
  1591   0028C2  EF67  F014         	goto	l72
  1592   0028C6                     u5160:
  1593   0028C6                     
  1594                           ;mcal_layer/ecu_DC mottor.c: 95:         ret = ( Std_returntype)0x00;
  1595   0028C6  0E00               	movlw	0
  1596   0028C8  6E0F               	movwf	dc_motor_stop@ret^0,c
  1597                           
  1598                           ;mcal_layer/ecu_DC mottor.c: 96:     }
  1599   0028CA  EFCB  F014         	goto	l6163
  1600   0028CE                     l72:
  1601                           
  1602                           ;mcal_layer/ecu_DC mottor.c: 98:           pin_config_t motor_con1 ={.port=_dc_motor->dc
      +                          _motor_pin[0].dc_mottor_port,
  1603   0028CE  C06C  F010         	movff	dc_motor_stop@F3068,dc_motor_stop@motor_con1
  1604   0028D2  C00C  FFD9         	movff	dc_motor_stop@_dc_motor,fsr2l
  1605   0028D6  C00D  FFDA         	movff	dc_motor_stop@_dc_motor+1,fsr2h
  1606   0028DA  50DF               	movf	223,w,c
  1607   0028DC  0B0F               	andlw	15
  1608   0028DE  6E0E               	movwf	??_dc_motor_stop^0,c
  1609   0028E0  5010               	movf	dc_motor_stop@motor_con1^0,w,c
  1610   0028E2  180E               	xorwf	??_dc_motor_stop^0,w,c
  1611   0028E4  0BF8               	andlw	-8
  1612   0028E6  180E               	xorwf	??_dc_motor_stop^0,w,c
  1613   0028E8  6E10               	movwf	dc_motor_stop@motor_con1^0,c
  1614   0028EA  C00C  FFD9         	movff	dc_motor_stop@_dc_motor,fsr2l
  1615   0028EE  C00D  FFDA         	movff	dc_motor_stop@_dc_motor+1,fsr2h
  1616   0028F2  38DF               	swapf	223,w,c
  1617   0028F4  0B07               	andlw	7
  1618   0028F6  6E0E               	movwf	??_dc_motor_stop^0,c
  1619   0028F8  460E               	rlncf	??_dc_motor_stop^0,f,c
  1620   0028FA  460E               	rlncf	??_dc_motor_stop^0,f,c
  1621   0028FC  460E               	rlncf	??_dc_motor_stop^0,f,c
  1622   0028FE  5010               	movf	dc_motor_stop@motor_con1^0,w,c
  1623   002900  180E               	xorwf	??_dc_motor_stop^0,w,c
  1624   002902  0BC7               	andlw	-57
  1625   002904  180E               	xorwf	??_dc_motor_stop^0,w,c
  1626   002906  6E10               	movwf	dc_motor_stop@motor_con1^0,c
  1627   002908  9C10               	bcf	dc_motor_stop@motor_con1^0,6,c
  1628   00290A  C00C  FFD9         	movff	dc_motor_stop@_dc_motor,fsr2l
  1629   00290E  C00D  FFDA         	movff	dc_motor_stop@_dc_motor+1,fsr2h
  1630   002912  AEDF               	btfss	indf2,7,c
  1631   002914  D002               	bra	u5175
  1632   002916  8E10               	bsf	dc_motor_stop@motor_con1^0,7,c
  1633   002918  D001               	bra	u5177
  1634   00291A                     u5175:
  1635   00291A  9E10               	bcf	dc_motor_stop@motor_con1^0,7,c
  1636   00291C                     u5177:
  1637   00291C                     
  1638                           ;mcal_layer/ecu_DC mottor.c: 103:    pin_config_t motor_con2 ={.port=_dc_motor->dc_motor
      +                          _pin[1].dc_mottor_port,
  1639   00291C  C06B  F011         	movff	dc_motor_stop@F3070,dc_motor_stop@motor_con2
  1640   002920  EE20 F001          	lfsr	2,1
  1641   002924  500C               	movf	dc_motor_stop@_dc_motor^0,w,c
  1642   002926  26D9               	addwf	fsr2l,f,c
  1643   002928  500D               	movf	(dc_motor_stop@_dc_motor+1)^0,w,c
  1644   00292A  22DA               	addwfc	fsr2h,f,c
  1645   00292C  50DF               	movf	223,w,c
  1646   00292E  0B0F               	andlw	15
  1647   002930  6E0E               	movwf	??_dc_motor_stop^0,c
  1648   002932  5011               	movf	dc_motor_stop@motor_con2^0,w,c
  1649   002934  180E               	xorwf	??_dc_motor_stop^0,w,c
  1650   002936  0BF8               	andlw	-8
  1651   002938  180E               	xorwf	??_dc_motor_stop^0,w,c
  1652   00293A  6E11               	movwf	dc_motor_stop@motor_con2^0,c
  1653   00293C  EE20 F001          	lfsr	2,1
  1654   002940  500C               	movf	dc_motor_stop@_dc_motor^0,w,c
  1655   002942  26D9               	addwf	fsr2l,f,c
  1656   002944  500D               	movf	(dc_motor_stop@_dc_motor+1)^0,w,c
  1657   002946  22DA               	addwfc	fsr2h,f,c
  1658   002948  38DF               	swapf	223,w,c
  1659   00294A  0B07               	andlw	7
  1660   00294C  6E0E               	movwf	??_dc_motor_stop^0,c
  1661   00294E  460E               	rlncf	??_dc_motor_stop^0,f,c
  1662   002950  460E               	rlncf	??_dc_motor_stop^0,f,c
  1663   002952  460E               	rlncf	??_dc_motor_stop^0,f,c
  1664   002954  5011               	movf	dc_motor_stop@motor_con2^0,w,c
  1665   002956  180E               	xorwf	??_dc_motor_stop^0,w,c
  1666   002958  0BC7               	andlw	-57
  1667   00295A  180E               	xorwf	??_dc_motor_stop^0,w,c
  1668   00295C  6E11               	movwf	dc_motor_stop@motor_con2^0,c
  1669   00295E  9C11               	bcf	dc_motor_stop@motor_con2^0,6,c
  1670   002960  EE20 F001          	lfsr	2,1
  1671   002964  500C               	movf	dc_motor_stop@_dc_motor^0,w,c
  1672   002966  26D9               	addwf	fsr2l,f,c
  1673   002968  500D               	movf	(dc_motor_stop@_dc_motor+1)^0,w,c
  1674   00296A  22DA               	addwfc	fsr2h,f,c
  1675   00296C  AEDF               	btfss	indf2,7,c
  1676   00296E  D002               	bra	u5185
  1677   002970  8E11               	bsf	dc_motor_stop@motor_con2^0,7,c
  1678   002972  D001               	bra	u5187
  1679   002974                     u5185:
  1680   002974  9E11               	bcf	dc_motor_stop@motor_con2^0,7,c
  1681   002976                     u5187:
  1682   002976                     
  1683                           ;mcal_layer/ecu_DC mottor.c: 108:        gpio_pin_write_logic(&motor_con1,LOW);
  1684   002976  0E10               	movlw	low dc_motor_stop@motor_con1
  1685   002978  6E02               	movwf	gpio_pin_write_logic@pin_config^0,c
  1686   00297A  0E00               	movlw	high dc_motor_stop@motor_con1
  1687   00297C  6E03               	movwf	(gpio_pin_write_logic@pin_config+1)^0,c
  1688   00297E  0E00               	movlw	0
  1689   002980  6E04               	movwf	gpio_pin_write_logic@logic^0,c
  1690   002982  EC3F  F013         	call	_gpio_pin_write_logic	;wreg free
  1691   002986                     
  1692                           ;mcal_layer/ecu_DC mottor.c: 109:        gpio_pin_write_logic(&motor_con2 ,LOW);
  1693   002986  0E11               	movlw	low dc_motor_stop@motor_con2
  1694   002988  6E02               	movwf	gpio_pin_write_logic@pin_config^0,c
  1695   00298A  0E00               	movlw	high dc_motor_stop@motor_con2
  1696   00298C  6E03               	movwf	(gpio_pin_write_logic@pin_config+1)^0,c
  1697   00298E  0E00               	movlw	0
  1698   002990  6E04               	movwf	gpio_pin_write_logic@logic^0,c
  1699   002992  EC3F  F013         	call	_gpio_pin_write_logic	;wreg free
  1700   002996                     l6163:
  1701                           
  1702                           ;mcal_layer/ecu_DC mottor.c: 112:     return ret;}
  1703   002996  500F               	movf	dc_motor_stop@ret^0,w,c
  1704   002998  0012               	return		;funcret
  1705   00299A                     __end_of_dc_motor_stop:
  1706                           	callstack 0
  1707                           
  1708 ;; *************** function _dc_motor_move_right *****************
  1709 ;; Defined at:
  1710 ;;		line 35 in file "mcal_layer/ecu_DC mottor.c"
  1711 ;; Parameters:    Size  Location     Type
  1712 ;;  _dc_motor       2   11[COMRAM] PTR const struct .
  1713 ;;		 -> dc_mottor_1(2), 
  1714 ;; Auto vars:     Size  Location     Type
  1715 ;;  motor_con2      1   16[COMRAM] struct .
  1716 ;;  motor_con1      1   15[COMRAM] struct .
  1717 ;;  ret             1   14[COMRAM] unsigned char 
  1718 ;; Return value:  Size  Location     Type
  1719 ;;                  1    wreg      unsigned char 
  1720 ;; Registers used:
  1721 ;;		wreg, fsr2l, fsr2h, status,2, status,0, prodl, prodh, cstack
  1722 ;; Tracked objects:
  1723 ;;		On entry : 0/0
  1724 ;;		On exit  : 0/0
  1725 ;;		Unchanged: 0/0
  1726 ;; Data sizes:     COMRAM   BANK0   BANK1   BANK2   BANK3   BANK4   BANK5   BANK6   BANK7   BANK8   BANK9  BANK10  BANK1
      +1  BANK12  BANK13  BANK14  BANK15
  1727 ;;      Params:         2       0       0       0       0       0       0       0       0       0       0       0       
      +0       0       0       0       0
  1728 ;;      Locals:         3       0       0       0       0       0       0       0       0       0       0       0       
      +0       0       0       0       0
  1729 ;;      Temps:          1       0       0       0       0       0       0       0       0       0       0       0       
      +0       0       0       0       0
  1730 ;;      Totals:         6       0       0       0       0       0       0       0       0       0       0       0       
      +0       0       0       0       0
  1731 ;;Total ram usage:        6 bytes
  1732 ;; Hardware stack levels used: 1
  1733 ;; Hardware stack levels required when called: 3
  1734 ;; This function calls:
  1735 ;;		_gpio_pin_write_logic
  1736 ;; This function is called by:
  1737 ;;		_main
  1738 ;; This function uses a non-reentrant model
  1739 ;;
  1740                           
  1741                           	psect	text5
  1742   00299A                     __ptext5:
  1743                           	callstack 0
  1744   00299A                     _dc_motor_move_right:
  1745                           	callstack 27
  1746   00299A                     
  1747                           ;mcal_layer/ecu_DC mottor.c: 39: Std_returntype ret =( Std_returntype)0x01;
  1748   00299A  0E01               	movlw	1
  1749   00299C  6E0F               	movwf	dc_motor_move_right@ret^0,c
  1750   00299E                     
  1751                           ;mcal_layer/ecu_DC mottor.c: 41:     if(((void*)0) == _dc_motor){
  1752   00299E  500C               	movf	dc_motor_move_right@_dc_motor^0,w,c
  1753   0029A0  100D               	iorwf	(dc_motor_move_right@_dc_motor+1)^0,w,c
  1754   0029A2  A4D8               	btfss	status,2,c
  1755   0029A4  EFD6  F014         	goto	u5101
  1756   0029A8  EFD8  F014         	goto	u5100
  1757   0029AC                     u5101:
  1758   0029AC  EFDC  F014         	goto	l54
  1759   0029B0                     u5100:
  1760   0029B0                     
  1761                           ;mcal_layer/ecu_DC mottor.c: 42:         ret = ( Std_returntype)0x00;
  1762   0029B0  0E00               	movlw	0
  1763   0029B2  6E0F               	movwf	dc_motor_move_right@ret^0,c
  1764                           
  1765                           ;mcal_layer/ecu_DC mottor.c: 43:     }
  1766   0029B4  EF40  F015         	goto	l6103
  1767   0029B8                     l54:
  1768                           
  1769                           ;mcal_layer/ecu_DC mottor.c: 45:           pin_config_t motor_con1 ={.port=_dc_motor->dc
      +                          _motor_pin[0].dc_mottor_port,
  1770   0029B8  C070  F010         	movff	dc_motor_move_right@F3054,dc_motor_move_right@motor_con1
  1771   0029BC  C00C  FFD9         	movff	dc_motor_move_right@_dc_motor,fsr2l
  1772   0029C0  C00D  FFDA         	movff	dc_motor_move_right@_dc_motor+1,fsr2h
  1773   0029C4  50DF               	movf	223,w,c
  1774   0029C6  0B0F               	andlw	15
  1775   0029C8  6E0E               	movwf	??_dc_motor_move_right^0,c
  1776   0029CA  5010               	movf	dc_motor_move_right@motor_con1^0,w,c
  1777   0029CC  180E               	xorwf	??_dc_motor_move_right^0,w,c
  1778   0029CE  0BF8               	andlw	-8
  1779   0029D0  180E               	xorwf	??_dc_motor_move_right^0,w,c
  1780   0029D2  6E10               	movwf	dc_motor_move_right@motor_con1^0,c
  1781   0029D4  C00C  FFD9         	movff	dc_motor_move_right@_dc_motor,fsr2l
  1782   0029D8  C00D  FFDA         	movff	dc_motor_move_right@_dc_motor+1,fsr2h
  1783   0029DC  38DF               	swapf	223,w,c
  1784   0029DE  0B07               	andlw	7
  1785   0029E0  6E0E               	movwf	??_dc_motor_move_right^0,c
  1786   0029E2  460E               	rlncf	??_dc_motor_move_right^0,f,c
  1787   0029E4  460E               	rlncf	??_dc_motor_move_right^0,f,c
  1788   0029E6  460E               	rlncf	??_dc_motor_move_right^0,f,c
  1789   0029E8  5010               	movf	dc_motor_move_right@motor_con1^0,w,c
  1790   0029EA  180E               	xorwf	??_dc_motor_move_right^0,w,c
  1791   0029EC  0BC7               	andlw	-57
  1792   0029EE  180E               	xorwf	??_dc_motor_move_right^0,w,c
  1793   0029F0  6E10               	movwf	dc_motor_move_right@motor_con1^0,c
  1794   0029F2  9C10               	bcf	dc_motor_move_right@motor_con1^0,6,c
  1795   0029F4  C00C  FFD9         	movff	dc_motor_move_right@_dc_motor,fsr2l
  1796   0029F8  C00D  FFDA         	movff	dc_motor_move_right@_dc_motor+1,fsr2h
  1797   0029FC  AEDF               	btfss	indf2,7,c
  1798   0029FE  D002               	bra	u5115
  1799   002A00  8E10               	bsf	dc_motor_move_right@motor_con1^0,7,c
  1800   002A02  D001               	bra	u5117
  1801   002A04                     u5115:
  1802   002A04  9E10               	bcf	dc_motor_move_right@motor_con1^0,7,c
  1803   002A06                     u5117:
  1804   002A06                     
  1805                           ;mcal_layer/ecu_DC mottor.c: 50:    pin_config_t motor_con2 ={.port=_dc_motor->dc_motor_
      +                          pin[1].dc_mottor_port,
  1806   002A06  C06F  F011         	movff	dc_motor_move_right@F3056,dc_motor_move_right@motor_con2
  1807   002A0A  EE20 F001          	lfsr	2,1
  1808   002A0E  500C               	movf	dc_motor_move_right@_dc_motor^0,w,c
  1809   002A10  26D9               	addwf	fsr2l,f,c
  1810   002A12  500D               	movf	(dc_motor_move_right@_dc_motor+1)^0,w,c
  1811   002A14  22DA               	addwfc	fsr2h,f,c
  1812   002A16  50DF               	movf	223,w,c
  1813   002A18  0B0F               	andlw	15
  1814   002A1A  6E0E               	movwf	??_dc_motor_move_right^0,c
  1815   002A1C  5011               	movf	dc_motor_move_right@motor_con2^0,w,c
  1816   002A1E  180E               	xorwf	??_dc_motor_move_right^0,w,c
  1817   002A20  0BF8               	andlw	-8
  1818   002A22  180E               	xorwf	??_dc_motor_move_right^0,w,c
  1819   002A24  6E11               	movwf	dc_motor_move_right@motor_con2^0,c
  1820   002A26  EE20 F001          	lfsr	2,1
  1821   002A2A  500C               	movf	dc_motor_move_right@_dc_motor^0,w,c
  1822   002A2C  26D9               	addwf	fsr2l,f,c
  1823   002A2E  500D               	movf	(dc_motor_move_right@_dc_motor+1)^0,w,c
  1824   002A30  22DA               	addwfc	fsr2h,f,c
  1825   002A32  38DF               	swapf	223,w,c
  1826   002A34  0B07               	andlw	7
  1827   002A36  6E0E               	movwf	??_dc_motor_move_right^0,c
  1828   002A38  460E               	rlncf	??_dc_motor_move_right^0,f,c
  1829   002A3A  460E               	rlncf	??_dc_motor_move_right^0,f,c
  1830   002A3C  460E               	rlncf	??_dc_motor_move_right^0,f,c
  1831   002A3E  5011               	movf	dc_motor_move_right@motor_con2^0,w,c
  1832   002A40  180E               	xorwf	??_dc_motor_move_right^0,w,c
  1833   002A42  0BC7               	andlw	-57
  1834   002A44  180E               	xorwf	??_dc_motor_move_right^0,w,c
  1835   002A46  6E11               	movwf	dc_motor_move_right@motor_con2^0,c
  1836   002A48  9C11               	bcf	dc_motor_move_right@motor_con2^0,6,c
  1837   002A4A  EE20 F001          	lfsr	2,1
  1838   002A4E  500C               	movf	dc_motor_move_right@_dc_motor^0,w,c
  1839   002A50  26D9               	addwf	fsr2l,f,c
  1840   002A52  500D               	movf	(dc_motor_move_right@_dc_motor+1)^0,w,c
  1841   002A54  22DA               	addwfc	fsr2h,f,c
  1842   002A56  AEDF               	btfss	indf2,7,c
  1843   002A58  D002               	bra	u5125
  1844   002A5A  8E11               	bsf	dc_motor_move_right@motor_con2^0,7,c
  1845   002A5C  D001               	bra	u5127
  1846   002A5E                     u5125:
  1847   002A5E  9E11               	bcf	dc_motor_move_right@motor_con2^0,7,c
  1848   002A60                     u5127:
  1849   002A60                     
  1850                           ;mcal_layer/ecu_DC mottor.c: 54:       gpio_pin_write_logic(&motor_con1,HIGH);
  1851   002A60  0E10               	movlw	low dc_motor_move_right@motor_con1
  1852   002A62  6E02               	movwf	gpio_pin_write_logic@pin_config^0,c
  1853   002A64  0E00               	movlw	high dc_motor_move_right@motor_con1
  1854   002A66  6E03               	movwf	(gpio_pin_write_logic@pin_config+1)^0,c
  1855   002A68  0E01               	movlw	1
  1856   002A6A  6E04               	movwf	gpio_pin_write_logic@logic^0,c
  1857   002A6C  EC3F  F013         	call	_gpio_pin_write_logic	;wreg free
  1858   002A70                     
  1859                           ;mcal_layer/ecu_DC mottor.c: 55:        gpio_pin_write_logic(&motor_con2 ,LOW);
  1860   002A70  0E11               	movlw	low dc_motor_move_right@motor_con2
  1861   002A72  6E02               	movwf	gpio_pin_write_logic@pin_config^0,c
  1862   002A74  0E00               	movlw	high dc_motor_move_right@motor_con2
  1863   002A76  6E03               	movwf	(gpio_pin_write_logic@pin_config+1)^0,c
  1864   002A78  0E00               	movlw	0
  1865   002A7A  6E04               	movwf	gpio_pin_write_logic@logic^0,c
  1866   002A7C  EC3F  F013         	call	_gpio_pin_write_logic	;wreg free
  1867   002A80                     l6103:
  1868                           
  1869                           ;mcal_layer/ecu_DC mottor.c: 58:     return ret;}
  1870   002A80  500F               	movf	dc_motor_move_right@ret^0,w,c
  1871   002A82  0012               	return		;funcret
  1872   002A84                     __end_of_dc_motor_move_right:
  1873                           	callstack 0
  1874                           
  1875 ;; *************** function _dc_motor_move_left *****************
  1876 ;; Defined at:
  1877 ;;		line 59 in file "mcal_layer/ecu_DC mottor.c"
  1878 ;; Parameters:    Size  Location     Type
  1879 ;;  _dc_motor       2   11[COMRAM] PTR const struct .
  1880 ;;		 -> dc_mottor_2(2), 
  1881 ;; Auto vars:     Size  Location     Type
  1882 ;;  motor_con2      1   16[COMRAM] struct .
  1883 ;;  motor_con1      1   15[COMRAM] struct .
  1884 ;;  ret             1   14[COMRAM] unsigned char 
  1885 ;; Return value:  Size  Location     Type
  1886 ;;                  1    wreg      unsigned char 
  1887 ;; Registers used:
  1888 ;;		wreg, fsr2l, fsr2h, status,2, status,0, prodl, prodh, cstack
  1889 ;; Tracked objects:
  1890 ;;		On entry : 0/0
  1891 ;;		On exit  : 0/0
  1892 ;;		Unchanged: 0/0
  1893 ;; Data sizes:     COMRAM   BANK0   BANK1   BANK2   BANK3   BANK4   BANK5   BANK6   BANK7   BANK8   BANK9  BANK10  BANK1
      +1  BANK12  BANK13  BANK14  BANK15
  1894 ;;      Params:         2       0       0       0       0       0       0       0       0       0       0       0       
      +0       0       0       0       0
  1895 ;;      Locals:         3       0       0       0       0       0       0       0       0       0       0       0       
      +0       0       0       0       0
  1896 ;;      Temps:          1       0       0       0       0       0       0       0       0       0       0       0       
      +0       0       0       0       0
  1897 ;;      Totals:         6       0       0       0       0       0       0       0       0       0       0       0       
      +0       0       0       0       0
  1898 ;;Total ram usage:        6 bytes
  1899 ;; Hardware stack levels used: 1
  1900 ;; Hardware stack levels required when called: 3
  1901 ;; This function calls:
  1902 ;;		_gpio_pin_write_logic
  1903 ;; This function is called by:
  1904 ;;		_main
  1905 ;; This function uses a non-reentrant model
  1906 ;;
  1907                           
  1908                           	psect	text6
  1909   002A84                     __ptext6:
  1910                           	callstack 0
  1911   002A84                     _dc_motor_move_left:
  1912                           	callstack 27
  1913   002A84                     
  1914                           ;mcal_layer/ecu_DC mottor.c: 63: Std_returntype ret =( Std_returntype)0x01;
  1915   002A84  0E01               	movlw	1
  1916   002A86  6E0F               	movwf	dc_motor_move_left@ret^0,c
  1917   002A88                     
  1918                           ;mcal_layer/ecu_DC mottor.c: 65:     if(((void*)0) == _dc_motor){
  1919   002A88  500C               	movf	dc_motor_move_left@_dc_motor^0,w,c
  1920   002A8A  100D               	iorwf	(dc_motor_move_left@_dc_motor+1)^0,w,c
  1921   002A8C  A4D8               	btfss	status,2,c
  1922   002A8E  EF4B  F015         	goto	u5131
  1923   002A92  EF4D  F015         	goto	u5130
  1924   002A96                     u5131:
  1925   002A96  EF51  F015         	goto	l63
  1926   002A9A                     u5130:
  1927   002A9A                     
  1928                           ;mcal_layer/ecu_DC mottor.c: 66:         ret = ( Std_returntype)0x00;
  1929   002A9A  0E00               	movlw	0
  1930   002A9C  6E0F               	movwf	dc_motor_move_left@ret^0,c
  1931                           
  1932                           ;mcal_layer/ecu_DC mottor.c: 67:     }
  1933   002A9E  EFB5  F015         	goto	l6133
  1934   002AA2                     l63:
  1935                           
  1936                           ;mcal_layer/ecu_DC mottor.c: 70:           pin_config_t motor_con1 ={.port=_dc_motor->dc
      +                          _motor_pin[0].dc_mottor_port,
  1937   002AA2  C06E  F010         	movff	dc_motor_move_left@F3061,dc_motor_move_left@motor_con1
  1938   002AA6  C00C  FFD9         	movff	dc_motor_move_left@_dc_motor,fsr2l
  1939   002AAA  C00D  FFDA         	movff	dc_motor_move_left@_dc_motor+1,fsr2h
  1940   002AAE  50DF               	movf	223,w,c
  1941   002AB0  0B0F               	andlw	15
  1942   002AB2  6E0E               	movwf	??_dc_motor_move_left^0,c
  1943   002AB4  5010               	movf	dc_motor_move_left@motor_con1^0,w,c
  1944   002AB6  180E               	xorwf	??_dc_motor_move_left^0,w,c
  1945   002AB8  0BF8               	andlw	-8
  1946   002ABA  180E               	xorwf	??_dc_motor_move_left^0,w,c
  1947   002ABC  6E10               	movwf	dc_motor_move_left@motor_con1^0,c
  1948   002ABE  C00C  FFD9         	movff	dc_motor_move_left@_dc_motor,fsr2l
  1949   002AC2  C00D  FFDA         	movff	dc_motor_move_left@_dc_motor+1,fsr2h
  1950   002AC6  38DF               	swapf	223,w,c
  1951   002AC8  0B07               	andlw	7
  1952   002ACA  6E0E               	movwf	??_dc_motor_move_left^0,c
  1953   002ACC  460E               	rlncf	??_dc_motor_move_left^0,f,c
  1954   002ACE  460E               	rlncf	??_dc_motor_move_left^0,f,c
  1955   002AD0  460E               	rlncf	??_dc_motor_move_left^0,f,c
  1956   002AD2  5010               	movf	dc_motor_move_left@motor_con1^0,w,c
  1957   002AD4  180E               	xorwf	??_dc_motor_move_left^0,w,c
  1958   002AD6  0BC7               	andlw	-57
  1959   002AD8  180E               	xorwf	??_dc_motor_move_left^0,w,c
  1960   002ADA  6E10               	movwf	dc_motor_move_left@motor_con1^0,c
  1961   002ADC  9C10               	bcf	dc_motor_move_left@motor_con1^0,6,c
  1962   002ADE  C00C  FFD9         	movff	dc_motor_move_left@_dc_motor,fsr2l
  1963   002AE2  C00D  FFDA         	movff	dc_motor_move_left@_dc_motor+1,fsr2h
  1964   002AE6  AEDF               	btfss	indf2,7,c
  1965   002AE8  D002               	bra	u5145
  1966   002AEA  8E10               	bsf	dc_motor_move_left@motor_con1^0,7,c
  1967   002AEC  D001               	bra	u5147
  1968   002AEE                     u5145:
  1969   002AEE  9E10               	bcf	dc_motor_move_left@motor_con1^0,7,c
  1970   002AF0                     u5147:
  1971   002AF0                     
  1972                           ;mcal_layer/ecu_DC mottor.c: 75:    pin_config_t motor_con2 ={.port=_dc_motor->dc_motor_
      +                          pin[1].dc_mottor_port,
  1973   002AF0  C06D  F011         	movff	dc_motor_move_left@F3063,dc_motor_move_left@motor_con2
  1974   002AF4  EE20 F001          	lfsr	2,1
  1975   002AF8  500C               	movf	dc_motor_move_left@_dc_motor^0,w,c
  1976   002AFA  26D9               	addwf	fsr2l,f,c
  1977   002AFC  500D               	movf	(dc_motor_move_left@_dc_motor+1)^0,w,c
  1978   002AFE  22DA               	addwfc	fsr2h,f,c
  1979   002B00  50DF               	movf	223,w,c
  1980   002B02  0B0F               	andlw	15
  1981   002B04  6E0E               	movwf	??_dc_motor_move_left^0,c
  1982   002B06  5011               	movf	dc_motor_move_left@motor_con2^0,w,c
  1983   002B08  180E               	xorwf	??_dc_motor_move_left^0,w,c
  1984   002B0A  0BF8               	andlw	-8
  1985   002B0C  180E               	xorwf	??_dc_motor_move_left^0,w,c
  1986   002B0E  6E11               	movwf	dc_motor_move_left@motor_con2^0,c
  1987   002B10  EE20 F001          	lfsr	2,1
  1988   002B14  500C               	movf	dc_motor_move_left@_dc_motor^0,w,c
  1989   002B16  26D9               	addwf	fsr2l,f,c
  1990   002B18  500D               	movf	(dc_motor_move_left@_dc_motor+1)^0,w,c
  1991   002B1A  22DA               	addwfc	fsr2h,f,c
  1992   002B1C  38DF               	swapf	223,w,c
  1993   002B1E  0B07               	andlw	7
  1994   002B20  6E0E               	movwf	??_dc_motor_move_left^0,c
  1995   002B22  460E               	rlncf	??_dc_motor_move_left^0,f,c
  1996   002B24  460E               	rlncf	??_dc_motor_move_left^0,f,c
  1997   002B26  460E               	rlncf	??_dc_motor_move_left^0,f,c
  1998   002B28  5011               	movf	dc_motor_move_left@motor_con2^0,w,c
  1999   002B2A  180E               	xorwf	??_dc_motor_move_left^0,w,c
  2000   002B2C  0BC7               	andlw	-57
  2001   002B2E  180E               	xorwf	??_dc_motor_move_left^0,w,c
  2002   002B30  6E11               	movwf	dc_motor_move_left@motor_con2^0,c
  2003   002B32  9C11               	bcf	dc_motor_move_left@motor_con2^0,6,c
  2004   002B34  EE20 F001          	lfsr	2,1
  2005   002B38  500C               	movf	dc_motor_move_left@_dc_motor^0,w,c
  2006   002B3A  26D9               	addwf	fsr2l,f,c
  2007   002B3C  500D               	movf	(dc_motor_move_left@_dc_motor+1)^0,w,c
  2008   002B3E  22DA               	addwfc	fsr2h,f,c
  2009   002B40  AEDF               	btfss	indf2,7,c
  2010   002B42  D002               	bra	u5155
  2011   002B44  8E11               	bsf	dc_motor_move_left@motor_con2^0,7,c
  2012   002B46  D001               	bra	u5157
  2013   002B48                     u5155:
  2014   002B48  9E11               	bcf	dc_motor_move_left@motor_con2^0,7,c
  2015   002B4A                     u5157:
  2016   002B4A                     
  2017                           ;mcal_layer/ecu_DC mottor.c: 79:       gpio_pin_write_logic(&motor_con1,LOW);
  2018   002B4A  0E10               	movlw	low dc_motor_move_left@motor_con1
  2019   002B4C  6E02               	movwf	gpio_pin_write_logic@pin_config^0,c
  2020   002B4E  0E00               	movlw	high dc_motor_move_left@motor_con1
  2021   002B50  6E03               	movwf	(gpio_pin_write_logic@pin_config+1)^0,c
  2022   002B52  0E00               	movlw	0
  2023   002B54  6E04               	movwf	gpio_pin_write_logic@logic^0,c
  2024   002B56  EC3F  F013         	call	_gpio_pin_write_logic	;wreg free
  2025   002B5A                     
  2026                           ;mcal_layer/ecu_DC mottor.c: 80:        gpio_pin_write_logic(&motor_con2 ,HIGH);
  2027   002B5A  0E11               	movlw	low dc_motor_move_left@motor_con2
  2028   002B5C  6E02               	movwf	gpio_pin_write_logic@pin_config^0,c
  2029   002B5E  0E00               	movlw	high dc_motor_move_left@motor_con2
  2030   002B60  6E03               	movwf	(gpio_pin_write_logic@pin_config+1)^0,c
  2031   002B62  0E01               	movlw	1
  2032   002B64  6E04               	movwf	gpio_pin_write_logic@logic^0,c
  2033   002B66  EC3F  F013         	call	_gpio_pin_write_logic	;wreg free
  2034   002B6A                     l6133:
  2035                           
  2036                           ;mcal_layer/ecu_DC mottor.c: 84:     return ret;}
  2037   002B6A  500F               	movf	dc_motor_move_left@ret^0,w,c
  2038   002B6C  0012               	return		;funcret
  2039   002B6E                     __end_of_dc_motor_move_left:
  2040                           	callstack 0
  2041                           
  2042 ;; *************** function _application_int *****************
  2043 ;; Defined at:
  2044 ;;		line 164 in file "application.c"
  2045 ;; Parameters:    Size  Location     Type
  2046 ;;		None
  2047 ;; Auto vars:     Size  Location     Type
  2048 ;;  ret             1    0        unsigned char 
  2049 ;; Return value:  Size  Location     Type
  2050 ;;                  1    wreg      void 
  2051 ;; Registers used:
  2052 ;;		wreg, fsr2l, fsr2h, status,2, status,0, prodl, prodh, cstack
  2053 ;; Tracked objects:
  2054 ;;		On entry : 0/0
  2055 ;;		On exit  : 0/0
  2056 ;;		Unchanged: 0/0
  2057 ;; Data sizes:     COMRAM   BANK0   BANK1   BANK2   BANK3   BANK4   BANK5   BANK6   BANK7   BANK8   BANK9  BANK10  BANK1
      +1  BANK12  BANK13  BANK14  BANK15
  2058 ;;      Params:         0       0       0       0       0       0       0       0       0       0       0       0       
      +0       0       0       0       0
  2059 ;;      Locals:         0       0       0       0       0       0       0       0       0       0       0       0       
      +0       0       0       0       0
  2060 ;;      Temps:          0       0       0       0       0       0       0       0       0       0       0       0       
      +0       0       0       0       0
  2061 ;;      Totals:         0       0       0       0       0       0       0       0       0       0       0       0       
      +0       0       0       0       0
  2062 ;;Total ram usage:        0 bytes
  2063 ;; Hardware stack levels used: 1
  2064 ;; Hardware stack levels required when called: 5
  2065 ;; This function calls:
  2066 ;;		_EUSART_ASYNC_Init
  2067 ;;		_dc_motor_initialize
  2068 ;;		_gpio_port_direction_intialize
  2069 ;;		_led_initialize
  2070 ;; This function is called by:
  2071 ;;		_main
  2072 ;; This function uses a non-reentrant model
  2073 ;;
  2074                           
  2075                           	psect	text7
  2076   0030BA                     __ptext7:
  2077                           	callstack 0
  2078   0030BA                     _application_int:
  2079                           	callstack 25
  2080   0030BA  0EB2               	movlw	low _x
  2081   0030BC  6E45               	movwf	EUSART_ASYNC_Init@_eusart^0,c
  2082   0030BE  0E00               	movlw	high _x
  2083   0030C0  6E46               	movwf	(EUSART_ASYNC_Init@_eusart+1)^0,c
  2084   0030C2  EC36  F018         	call	_EUSART_ASYNC_Init	;wreg free
  2085   0030C6  0E80               	movlw	128
  2086   0030C8  6E02               	movwf	gpio_port_direction_intialize@direction^0,c
  2087   0030CA  0E03               	movlw	3
  2088   0030CC  ECA4  F018         	call	_gpio_port_direction_intialize
  2089   0030D0  0E74               	movlw	low _led1
  2090   0030D2  6E10               	movwf	led_initialize@led^0,c
  2091   0030D4  0E00               	movlw	high _led1
  2092   0030D6  6E11               	movwf	(led_initialize@led+1)^0,c
  2093   0030D8  ECF0  F016         	call	_led_initialize	;wreg free
  2094   0030DC  0E7D               	movlw	low _led2
  2095   0030DE  6E10               	movwf	led_initialize@led^0,c
  2096   0030E0  0E00               	movlw	high _led2
  2097   0030E2  6E11               	movwf	(led_initialize@led+1)^0,c
  2098   0030E4  ECF0  F016         	call	_led_initialize	;wreg free
  2099   0030E8  0E7B               	movlw	low _dc_mottor_1
  2100   0030EA  6E10               	movwf	dc_motor_initialize@_dc_motor^0,c
  2101   0030EC  0E00               	movlw	high _dc_mottor_1
  2102   0030EE  6E11               	movwf	(dc_motor_initialize@_dc_motor+1)^0,c
  2103   0030F0  ECB7  F015         	call	_dc_motor_initialize	;wreg free
  2104   0030F4  0E79               	movlw	low _dc_mottor_2
  2105   0030F6  6E10               	movwf	dc_motor_initialize@_dc_motor^0,c
  2106   0030F8  0E00               	movlw	high _dc_mottor_2
  2107   0030FA  6E11               	movwf	(dc_motor_initialize@_dc_motor+1)^0,c
  2108   0030FC  ECB7  F015         	call	_dc_motor_initialize	;wreg free
  2109   003100  0012               	return		;funcret
  2110   003102                     __end_of_application_int:
  2111                           	callstack 0
  2112                           
  2113 ;; *************** function _led_initialize *****************
  2114 ;; Defined at:
  2115 ;;		line 14 in file "mcal_layer/ecu_led.c"
  2116 ;; Parameters:    Size  Location     Type
  2117 ;;  led             2   15[COMRAM] PTR const struct .
  2118 ;;		 -> led2(1), led1(1), 
  2119 ;; Auto vars:     Size  Location     Type
  2120 ;;  object          1   19[COMRAM] struct .
  2121 ;;  ret             1   18[COMRAM] unsigned char 
  2122 ;; Return value:  Size  Location     Type
  2123 ;;                  1    wreg      unsigned char 
  2124 ;; Registers used:
  2125 ;;		wreg, fsr2l, fsr2h, status,2, status,0, prodl, prodh, cstack
  2126 ;; Tracked objects:
  2127 ;;		On entry : 0/0
  2128 ;;		On exit  : 0/0
  2129 ;;		Unchanged: 0/0
  2130 ;; Data sizes:     COMRAM   BANK0   BANK1   BANK2   BANK3   BANK4   BANK5   BANK6   BANK7   BANK8   BANK9  BANK10  BANK1
      +1  BANK12  BANK13  BANK14  BANK15
  2131 ;;      Params:         2       0       0       0       0       0       0       0       0       0       0       0       
      +0       0       0       0       0
  2132 ;;      Locals:         2       0       0       0       0       0       0       0       0       0       0       0       
      +0       0       0       0       0
  2133 ;;      Temps:          1       0       0       0       0       0       0       0       0       0       0       0       
      +0       0       0       0       0
  2134 ;;      Totals:         5       0       0       0       0       0       0       0       0       0       0       0       
      +0       0       0       0       0
  2135 ;;Total ram usage:        5 bytes
  2136 ;; Hardware stack levels used: 1
  2137 ;; Hardware stack levels required when called: 4
  2138 ;; This function calls:
  2139 ;;		_gpio_pin_intialize
  2140 ;; This function is called by:
  2141 ;;		_application_int
  2142 ;; This function uses a non-reentrant model
  2143 ;;
  2144                           
  2145                           	psect	text8
  2146   002DE0                     __ptext8:
  2147                           	callstack 0
  2148   002DE0                     _led_initialize:
  2149                           	callstack 25
  2150   002DE0                     
  2151                           ;mcal_layer/ecu_led.c: 15:  Std_returntype ret =( Std_returntype)0x01;
  2152   002DE0  0E01               	movlw	1
  2153   002DE2  6E13               	movwf	led_initialize@ret^0,c
  2154   002DE4                     
  2155                           ;mcal_layer/ecu_led.c: 17:     if(((void*)0) == led){
  2156   002DE4  5010               	movf	led_initialize@led^0,w,c
  2157   002DE6  1011               	iorwf	(led_initialize@led+1)^0,w,c
  2158   002DE8  A4D8               	btfss	status,2,c
  2159   002DEA  EFF9  F016         	goto	u5051
  2160   002DEE  EFFB  F016         	goto	u5050
  2161   002DF2                     u5051:
  2162   002DF2  EFFF  F016         	goto	l274
  2163   002DF6                     u5050:
  2164   002DF6                     
  2165                           ;mcal_layer/ecu_led.c: 18:         ret = ( Std_returntype)0x00;
  2166   002DF6  0E00               	movlw	0
  2167   002DF8  6E13               	movwf	led_initialize@ret^0,c
  2168                           
  2169                           ;mcal_layer/ecu_led.c: 19:     }
  2170   002DFA  EF2C  F017         	goto	l6037
  2171   002DFE                     l274:
  2172                           
  2173                           ;mcal_layer/ecu_led.c: 21:        pin_config_t object = {.port=led->port_name,.pin=led->
      +                          pin, .direction=OUTPUT,.logic=led->led_status};
  2174   002DFE  C06A  F014         	movff	led_initialize@F3048,led_initialize@object
  2175   002E02  C010  FFD9         	movff	led_initialize@led,fsr2l
  2176   002E06  C011  FFDA         	movff	led_initialize@led+1,fsr2h
  2177   002E0A  50DF               	movf	223,w,c
  2178   002E0C  0B0F               	andlw	15
  2179   002E0E  6E12               	movwf	??_led_initialize^0,c
  2180   002E10  5014               	movf	led_initialize@object^0,w,c
  2181   002E12  1812               	xorwf	??_led_initialize^0,w,c
  2182   002E14  0BF8               	andlw	-8
  2183   002E16  1812               	xorwf	??_led_initialize^0,w,c
  2184   002E18  6E14               	movwf	led_initialize@object^0,c
  2185   002E1A  C010  FFD9         	movff	led_initialize@led,fsr2l
  2186   002E1E  C011  FFDA         	movff	led_initialize@led+1,fsr2h
  2187   002E22  38DF               	swapf	223,w,c
  2188   002E24  0B07               	andlw	7
  2189   002E26  6E12               	movwf	??_led_initialize^0,c
  2190   002E28  4612               	rlncf	??_led_initialize^0,f,c
  2191   002E2A  4612               	rlncf	??_led_initialize^0,f,c
  2192   002E2C  4612               	rlncf	??_led_initialize^0,f,c
  2193   002E2E  5014               	movf	led_initialize@object^0,w,c
  2194   002E30  1812               	xorwf	??_led_initialize^0,w,c
  2195   002E32  0BC7               	andlw	-57
  2196   002E34  1812               	xorwf	??_led_initialize^0,w,c
  2197   002E36  6E14               	movwf	led_initialize@object^0,c
  2198   002E38  9C14               	bcf	led_initialize@object^0,6,c
  2199   002E3A  C010  FFD9         	movff	led_initialize@led,fsr2l
  2200   002E3E  C011  FFDA         	movff	led_initialize@led+1,fsr2h
  2201   002E42  AEDF               	btfss	indf2,7,c
  2202   002E44  D002               	bra	u5065
  2203   002E46  8E14               	bsf	led_initialize@object^0,7,c
  2204   002E48  D001               	bra	u5067
  2205   002E4A                     u5065:
  2206   002E4A  9E14               	bcf	led_initialize@object^0,7,c
  2207   002E4C                     u5067:
  2208   002E4C                     
  2209                           ;mcal_layer/ecu_led.c: 22:         gpio_pin_intialize(&object);
  2210   002E4C  0E14               	movlw	low led_initialize@object
  2211   002E4E  6E0C               	movwf	gpio_pin_intialize@pin_config^0,c
  2212   002E50  0E00               	movlw	high led_initialize@object
  2213   002E52  6E0D               	movwf	(gpio_pin_intialize@pin_config+1)^0,c
  2214   002E54  ECA4  F017         	call	_gpio_pin_intialize	;wreg free
  2215   002E58                     l6037:
  2216                           
  2217                           ;mcal_layer/ecu_led.c: 25:     return ret;}
  2218   002E58  5013               	movf	led_initialize@ret^0,w,c
  2219   002E5A  0012               	return		;funcret
  2220   002E5C                     __end_of_led_initialize:
  2221                           	callstack 0
  2222                           
  2223 ;; *************** function _gpio_port_direction_intialize *****************
  2224 ;; Defined at:
  2225 ;;		line 148 in file "mcal_layer/GPIO/hal_gpio.c"
  2226 ;; Parameters:    Size  Location     Type
  2227 ;;  port            1    wreg     enum E2986
  2228 ;;  direction       1    1[COMRAM] unsigned char 
  2229 ;; Auto vars:     Size  Location     Type
  2230 ;;  port            1    5[COMRAM] enum E2986
  2231 ;;  ret             1    4[COMRAM] unsigned char 
  2232 ;; Return value:  Size  Location     Type
  2233 ;;                  1    wreg      unsigned char 
  2234 ;; Registers used:
  2235 ;;		wreg, fsr2l, fsr2h, status,2, status,0, prodl, prodh
  2236 ;; Tracked objects:
  2237 ;;		On entry : 0/0
  2238 ;;		On exit  : 0/0
  2239 ;;		Unchanged: 0/0
  2240 ;; Data sizes:     COMRAM   BANK0   BANK1   BANK2   BANK3   BANK4   BANK5   BANK6   BANK7   BANK8   BANK9  BANK10  BANK1
      +1  BANK12  BANK13  BANK14  BANK15
  2241 ;;      Params:         1       0       0       0       0       0       0       0       0       0       0       0       
      +0       0       0       0       0
  2242 ;;      Locals:         2       0       0       0       0       0       0       0       0       0       0       0       
      +0       0       0       0       0
  2243 ;;      Temps:          2       0       0       0       0       0       0       0       0       0       0       0       
      +0       0       0       0       0
  2244 ;;      Totals:         5       0       0       0       0       0       0       0       0       0       0       0       
      +0       0       0       0       0
  2245 ;;Total ram usage:        5 bytes
  2246 ;; Hardware stack levels used: 1
  2247 ;; Hardware stack levels required when called: 2
  2248 ;; This function calls:
  2249 ;;		Nothing
  2250 ;; This function is called by:
  2251 ;;		_application_int
  2252 ;; This function uses a non-reentrant model
  2253 ;;
  2254                           
  2255                           	psect	text9
  2256   003148                     __ptext9:
  2257                           	callstack 0
  2258   003148                     _gpio_port_direction_intialize:
  2259                           	callstack 27
  2260                           
  2261                           ;incstack = 0
  2262                           ;gpio_port_direction_intialize@port stored from wreg
  2263   003148  6E06               	movwf	gpio_port_direction_intialize@port^0,c
  2264   00314A                     
  2265                           ;mcal_layer/GPIO/hal_gpio.c: 150: Std_returntype ret = ( Std_returntype)0x01 ;
  2266   00314A  0E01               	movlw	1
  2267   00314C  6E05               	movwf	gpio_port_direction_intialize@ret^0,c
  2268   00314E                     
  2269                           ;mcal_layer/GPIO/hal_gpio.c: 151:           if(port>5 ){
  2270   00314E  0E05               	movlw	5
  2271   003150  6406               	cpfsgt	gpio_port_direction_intialize@port^0,c
  2272   003152  EFAD  F018         	goto	u5071
  2273   003156  EFAF  F018         	goto	u5070
  2274   00315A                     u5071:
  2275   00315A  EFB3  F018         	goto	l6047
  2276   00315E                     u5070:
  2277   00315E                     
  2278                           ;mcal_layer/GPIO/hal_gpio.c: 152:              ret= ( Std_returntype)0x00 ; }
  2279   00315E  0E00               	movlw	0
  2280   003160  6E05               	movwf	gpio_port_direction_intialize@ret^0,c
  2281   003162  EFC5  F018         	goto	l6049
  2282   003166                     l6047:
  2283                           
  2284                           ;mcal_layer/GPIO/hal_gpio.c: 154:              *tris_register[port]=direction;
  2285   003166  5006               	movf	gpio_port_direction_intialize@port^0,w,c
  2286   003168  0D02               	mullw	2
  2287   00316A  0EA8               	movlw	low _tris_register
  2288   00316C  24F3               	addwf	243,w,c
  2289   00316E  6ED9               	movwf	fsr2l,c
  2290   003170  0E00               	movlw	high _tris_register
  2291   003172  20F4               	addwfc	prodh,w,c
  2292   003174  6EDA               	movwf	fsr2h,c
  2293   003176  CFDE F003          	movff	postinc2,??_gpio_port_direction_intialize
  2294   00317A  CFDD F004          	movff	postdec2,??_gpio_port_direction_intialize+1
  2295   00317E  C003  FFD9         	movff	??_gpio_port_direction_intialize,fsr2l
  2296   003182  C004  FFDA         	movff	??_gpio_port_direction_intialize+1,fsr2h
  2297   003186  C002  FFDF         	movff	gpio_port_direction_intialize@direction,indf2
  2298   00318A                     l6049:
  2299                           
  2300                           ;mcal_layer/GPIO/hal_gpio.c: 156:     return ret;
  2301   00318A  5005               	movf	gpio_port_direction_intialize@ret^0,w,c
  2302   00318C  0012               	return		;funcret
  2303   00318E                     __end_of_gpio_port_direction_intialize:
  2304                           	callstack 0
  2305                           
  2306 ;; *************** function _dc_motor_initialize *****************
  2307 ;; Defined at:
  2308 ;;		line 3 in file "mcal_layer/ecu_DC mottor.c"
  2309 ;; Parameters:    Size  Location     Type
  2310 ;;  _dc_motor       2   15[COMRAM] PTR const struct .
  2311 ;;		 -> dc_mottor_2(2), dc_mottor_1(2), 
  2312 ;; Auto vars:     Size  Location     Type
  2313 ;;  motor_con2      1   20[COMRAM] struct .
  2314 ;;  motor_con1      1   19[COMRAM] struct .
  2315 ;;  ret             1   18[COMRAM] unsigned char 
  2316 ;; Return value:  Size  Location     Type
  2317 ;;                  1    wreg      unsigned char 
  2318 ;; Registers used:
  2319 ;;		wreg, fsr2l, fsr2h, status,2, status,0, prodl, prodh, cstack
  2320 ;; Tracked objects:
  2321 ;;		On entry : 0/0
  2322 ;;		On exit  : 0/0
  2323 ;;		Unchanged: 0/0
  2324 ;; Data sizes:     COMRAM   BANK0   BANK1   BANK2   BANK3   BANK4   BANK5   BANK6   BANK7   BANK8   BANK9  BANK10  BANK1
      +1  BANK12  BANK13  BANK14  BANK15
  2325 ;;      Params:         2       0       0       0       0       0       0       0       0       0       0       0       
      +0       0       0       0       0
  2326 ;;      Locals:         3       0       0       0       0       0       0       0       0       0       0       0       
      +0       0       0       0       0
  2327 ;;      Temps:          1       0       0       0       0       0       0       0       0       0       0       0       
      +0       0       0       0       0
  2328 ;;      Totals:         6       0       0       0       0       0       0       0       0       0       0       0       
      +0       0       0       0       0
  2329 ;;Total ram usage:        6 bytes
  2330 ;; Hardware stack levels used: 1
  2331 ;; Hardware stack levels required when called: 4
  2332 ;; This function calls:
  2333 ;;		_gpio_pin_intialize
  2334 ;; This function is called by:
  2335 ;;		_application_int
  2336 ;; This function uses a non-reentrant model
  2337 ;;
  2338                           
  2339                           	psect	text10
  2340   002B6E                     __ptext10:
  2341                           	callstack 0
  2342   002B6E                     _dc_motor_initialize:
  2343                           	callstack 25
  2344   002B6E                     
  2345                           ;mcal_layer/ecu_DC mottor.c: 7: Std_returntype ret =( Std_returntype)0x01;
  2346   002B6E  0E01               	movlw	1
  2347   002B70  6E13               	movwf	dc_motor_initialize@ret^0,c
  2348   002B72                     
  2349                           ;mcal_layer/ecu_DC mottor.c: 9:     if(((void*)0) == _dc_motor){
  2350   002B72  5010               	movf	dc_motor_initialize@_dc_motor^0,w,c
  2351   002B74  1011               	iorwf	(dc_motor_initialize@_dc_motor+1)^0,w,c
  2352   002B76  A4D8               	btfss	status,2,c
  2353   002B78  EFC0  F015         	goto	u4981
  2354   002B7C  EFC2  F015         	goto	u4980
  2355   002B80                     u4981:
  2356   002B80  EFC6  F015         	goto	l45
  2357   002B84                     u4980:
  2358   002B84                     
  2359                           ;mcal_layer/ecu_DC mottor.c: 10:         ret = ( Std_returntype)0x00;
  2360   002B84  0E00               	movlw	0
  2361   002B86  6E13               	movwf	dc_motor_initialize@ret^0,c
  2362                           
  2363                           ;mcal_layer/ecu_DC mottor.c: 11:     }
  2364   002B88  EF26  F016         	goto	l5945
  2365   002B8C                     l45:
  2366                           
  2367                           ;mcal_layer/ecu_DC mottor.c: 13:     pin_config_t motor_con1 ={.port=_dc_motor->dc_motor
      +                          _pin[0].dc_mottor_port,
  2368   002B8C  C072  F014         	movff	dc_motor_initialize@F3047,dc_motor_initialize@motor_con1
  2369   002B90  C010  FFD9         	movff	dc_motor_initialize@_dc_motor,fsr2l
  2370   002B94  C011  FFDA         	movff	dc_motor_initialize@_dc_motor+1,fsr2h
  2371   002B98  50DF               	movf	223,w,c
  2372   002B9A  0B0F               	andlw	15
  2373   002B9C  6E12               	movwf	??_dc_motor_initialize^0,c
  2374   002B9E  5014               	movf	dc_motor_initialize@motor_con1^0,w,c
  2375   002BA0  1812               	xorwf	??_dc_motor_initialize^0,w,c
  2376   002BA2  0BF8               	andlw	-8
  2377   002BA4  1812               	xorwf	??_dc_motor_initialize^0,w,c
  2378   002BA6  6E14               	movwf	dc_motor_initialize@motor_con1^0,c
  2379   002BA8  C010  FFD9         	movff	dc_motor_initialize@_dc_motor,fsr2l
  2380   002BAC  C011  FFDA         	movff	dc_motor_initialize@_dc_motor+1,fsr2h
  2381   002BB0  38DF               	swapf	223,w,c
  2382   002BB2  0B07               	andlw	7
  2383   002BB4  6E12               	movwf	??_dc_motor_initialize^0,c
  2384   002BB6  4612               	rlncf	??_dc_motor_initialize^0,f,c
  2385   002BB8  4612               	rlncf	??_dc_motor_initialize^0,f,c
  2386   002BBA  4612               	rlncf	??_dc_motor_initialize^0,f,c
  2387   002BBC  5014               	movf	dc_motor_initialize@motor_con1^0,w,c
  2388   002BBE  1812               	xorwf	??_dc_motor_initialize^0,w,c
  2389   002BC0  0BC7               	andlw	-57
  2390   002BC2  1812               	xorwf	??_dc_motor_initialize^0,w,c
  2391   002BC4  6E14               	movwf	dc_motor_initialize@motor_con1^0,c
  2392   002BC6  9C14               	bcf	dc_motor_initialize@motor_con1^0,6,c
  2393   002BC8  C010  FFD9         	movff	dc_motor_initialize@_dc_motor,fsr2l
  2394   002BCC  C011  FFDA         	movff	dc_motor_initialize@_dc_motor+1,fsr2h
  2395   002BD0  AEDF               	btfss	indf2,7,c
  2396   002BD2  D002               	bra	u4995
  2397   002BD4  8E14               	bsf	dc_motor_initialize@motor_con1^0,7,c
  2398   002BD6  D001               	bra	u4997
  2399   002BD8                     u4995:
  2400   002BD8  9E14               	bcf	dc_motor_initialize@motor_con1^0,7,c
  2401   002BDA                     u4997:
  2402   002BDA                     
  2403                           ;mcal_layer/ecu_DC mottor.c: 18:    pin_config_t motor_con2 ={.port=_dc_motor->dc_motor_
      +                          pin[1].dc_mottor_port,
  2404   002BDA  C071  F015         	movff	dc_motor_initialize@F3049,dc_motor_initialize@motor_con2
  2405   002BDE  EE20 F001          	lfsr	2,1
  2406   002BE2  5010               	movf	dc_motor_initialize@_dc_motor^0,w,c
  2407   002BE4  26D9               	addwf	fsr2l,f,c
  2408   002BE6  5011               	movf	(dc_motor_initialize@_dc_motor+1)^0,w,c
  2409   002BE8  22DA               	addwfc	fsr2h,f,c
  2410   002BEA  50DF               	movf	223,w,c
  2411   002BEC  0B0F               	andlw	15
  2412   002BEE  6E12               	movwf	??_dc_motor_initialize^0,c
  2413   002BF0  5015               	movf	dc_motor_initialize@motor_con2^0,w,c
  2414   002BF2  1812               	xorwf	??_dc_motor_initialize^0,w,c
  2415   002BF4  0BF8               	andlw	-8
  2416   002BF6  1812               	xorwf	??_dc_motor_initialize^0,w,c
  2417   002BF8  6E15               	movwf	dc_motor_initialize@motor_con2^0,c
  2418   002BFA  EE20 F001          	lfsr	2,1
  2419   002BFE  5010               	movf	dc_motor_initialize@_dc_motor^0,w,c
  2420   002C00  26D9               	addwf	fsr2l,f,c
  2421   002C02  5011               	movf	(dc_motor_initialize@_dc_motor+1)^0,w,c
  2422   002C04  22DA               	addwfc	fsr2h,f,c
  2423   002C06  38DF               	swapf	223,w,c
  2424   002C08  0B07               	andlw	7
  2425   002C0A  6E12               	movwf	??_dc_motor_initialize^0,c
  2426   002C0C  4612               	rlncf	??_dc_motor_initialize^0,f,c
  2427   002C0E  4612               	rlncf	??_dc_motor_initialize^0,f,c
  2428   002C10  4612               	rlncf	??_dc_motor_initialize^0,f,c
  2429   002C12  5015               	movf	dc_motor_initialize@motor_con2^0,w,c
  2430   002C14  1812               	xorwf	??_dc_motor_initialize^0,w,c
  2431   002C16  0BC7               	andlw	-57
  2432   002C18  1812               	xorwf	??_dc_motor_initialize^0,w,c
  2433   002C1A  6E15               	movwf	dc_motor_initialize@motor_con2^0,c
  2434   002C1C  9C15               	bcf	dc_motor_initialize@motor_con2^0,6,c
  2435   002C1E  EE20 F001          	lfsr	2,1
  2436   002C22  5010               	movf	dc_motor_initialize@_dc_motor^0,w,c
  2437   002C24  26D9               	addwf	fsr2l,f,c
  2438   002C26  5011               	movf	(dc_motor_initialize@_dc_motor+1)^0,w,c
  2439   002C28  22DA               	addwfc	fsr2h,f,c
  2440   002C2A  AEDF               	btfss	indf2,7,c
  2441   002C2C  D002               	bra	u5005
  2442   002C2E  8E15               	bsf	dc_motor_initialize@motor_con2^0,7,c
  2443   002C30  D001               	bra	u5007
  2444   002C32                     u5005:
  2445   002C32  9E15               	bcf	dc_motor_initialize@motor_con2^0,7,c
  2446   002C34                     u5007:
  2447   002C34                     
  2448                           ;mcal_layer/ecu_DC mottor.c: 23:        gpio_pin_intialize(&motor_con1);
  2449   002C34  0E14               	movlw	low dc_motor_initialize@motor_con1
  2450   002C36  6E0C               	movwf	gpio_pin_intialize@pin_config^0,c
  2451   002C38  0E00               	movlw	high dc_motor_initialize@motor_con1
  2452   002C3A  6E0D               	movwf	(gpio_pin_intialize@pin_config+1)^0,c
  2453   002C3C  ECA4  F017         	call	_gpio_pin_intialize	;wreg free
  2454   002C40                     
  2455                           ;mcal_layer/ecu_DC mottor.c: 24:         gpio_pin_intialize(&motor_con2);
  2456   002C40  0E15               	movlw	low dc_motor_initialize@motor_con2
  2457   002C42  6E0C               	movwf	gpio_pin_intialize@pin_config^0,c
  2458   002C44  0E00               	movlw	high dc_motor_initialize@motor_con2
  2459   002C46  6E0D               	movwf	(gpio_pin_intialize@pin_config+1)^0,c
  2460   002C48  ECA4  F017         	call	_gpio_pin_intialize	;wreg free
  2461   002C4C                     l5945:
  2462                           
  2463                           ;mcal_layer/ecu_DC mottor.c: 30:     return ret;
  2464   002C4C  5013               	movf	dc_motor_initialize@ret^0,w,c
  2465   002C4E  0012               	return		;funcret
  2466   002C50                     __end_of_dc_motor_initialize:
  2467                           	callstack 0
  2468                           
  2469 ;; *************** function _gpio_pin_intialize *****************
  2470 ;; Defined at:
  2471 ;;		line 120 in file "mcal_layer/GPIO/hal_gpio.c"
  2472 ;; Parameters:    Size  Location     Type
  2473 ;;  pin_config      2   11[COMRAM] PTR const struct .
  2474 ;;		 -> relay_initialize@object(1), led_initialize@object(1), dc_motor_initialize@motor_con2(1), dc_motor_initialize@mot
      +or_con1(1), 
  2475 ;; Auto vars:     Size  Location     Type
  2476 ;;  ret             1   14[COMRAM] unsigned char 
  2477 ;; Return value:  Size  Location     Type
  2478 ;;                  1    wreg      unsigned char 
  2479 ;; Registers used:
  2480 ;;		wreg, fsr2l, fsr2h, status,2, status,0, prodl, prodh, cstack
  2481 ;; Tracked objects:
  2482 ;;		On entry : 0/0
  2483 ;;		On exit  : 0/0
  2484 ;;		Unchanged: 0/0
  2485 ;; Data sizes:     COMRAM   BANK0   BANK1   BANK2   BANK3   BANK4   BANK5   BANK6   BANK7   BANK8   BANK9  BANK10  BANK1
      +1  BANK12  BANK13  BANK14  BANK15
  2486 ;;      Params:         2       0       0       0       0       0       0       0       0       0       0       0       
      +0       0       0       0       0
  2487 ;;      Locals:         1       0       0       0       0       0       0       0       0       0       0       0       
      +0       0       0       0       0
  2488 ;;      Temps:          1       0       0       0       0       0       0       0       0       0       0       0       
      +0       0       0       0       0
  2489 ;;      Totals:         4       0       0       0       0       0       0       0       0       0       0       0       
      +0       0       0       0       0
  2490 ;;Total ram usage:        4 bytes
  2491 ;; Hardware stack levels used: 1
  2492 ;; Hardware stack levels required when called: 3
  2493 ;; This function calls:
  2494 ;;		_gpio_pin_direction_intialize
  2495 ;;		_gpio_pin_write_logic
  2496 ;; This function is called by:
  2497 ;;		_dc_motor_initialize
  2498 ;;		_led_initialize
  2499 ;;		_seven_segement_intialize
  2500 ;;		_lcd_4bit_intialize
  2501 ;;		_lcd_8bit_intialize
  2502 ;;		_keypad_initialize
  2503 ;;		_relay_initialize
  2504 ;;		_CCP_Init
  2505 ;; This function uses a non-reentrant model
  2506 ;;
  2507                           
  2508                           	psect	text11
  2509   002F48                     __ptext11:
  2510                           	callstack 0
  2511   002F48                     _gpio_pin_intialize:
  2512                           	callstack 25
  2513   002F48                     
  2514                           ;mcal_layer/GPIO/hal_gpio.c: 123:           if(((void*)0)==pin_config|| pin_config->pin>
      +                           8 -1 ){
  2515   002F48  500C               	movf	gpio_pin_intialize@pin_config^0,w,c
  2516   002F4A  100D               	iorwf	(gpio_pin_intialize@pin_config+1)^0,w,c
  2517   002F4C  B4D8               	btfsc	status,2,c
  2518   002F4E  EFAB  F017         	goto	u4861
  2519   002F52  EFAD  F017         	goto	u4860
  2520   002F56                     u4861:
  2521   002F56  EFBE  F017         	goto	l5837
  2522   002F5A                     u4860:
  2523   002F5A  C00C  FFD9         	movff	gpio_pin_intialize@pin_config,fsr2l
  2524   002F5E  C00D  FFDA         	movff	gpio_pin_intialize@pin_config+1,fsr2h
  2525   002F62  30DF               	rrcf	223,w,c
  2526   002F64  32E8               	rrcf	wreg,f,c
  2527   002F66  32E8               	rrcf	wreg,f,c
  2528   002F68  0B07               	andlw	7
  2529   002F6A  6E0E               	movwf	??_gpio_pin_intialize^0,c
  2530   002F6C  0E07               	movlw	7
  2531   002F6E  640E               	cpfsgt	??_gpio_pin_intialize^0,c
  2532   002F70  EFBC  F017         	goto	u4871
  2533   002F74  EFBE  F017         	goto	u4870
  2534   002F78                     u4871:
  2535   002F78  EFC2  F017         	goto	l5839
  2536   002F7C                     u4870:
  2537   002F7C                     l5837:
  2538                           
  2539                           ;mcal_layer/GPIO/hal_gpio.c: 124:              ret=( Std_returntype)0x00 ; }
  2540   002F7C  0E00               	movlw	0
  2541   002F7E  6E0F               	movwf	gpio_pin_intialize@ret^0,c
  2542   002F80  EFD8  F017         	goto	l5841
  2543   002F84                     l5839:
  2544                           
  2545                           ;mcal_layer/GPIO/hal_gpio.c: 126:               ret =gpio_pin_direction_intialize(pin_co
      +                          nfig);
  2546   002F84  C00C  F002         	movff	gpio_pin_intialize@pin_config,gpio_pin_direction_intialize@pin_config
  2547   002F88  C00D  F003         	movff	gpio_pin_intialize@pin_config+1,gpio_pin_direction_intialize@pin_config+1
  2548   002F8C  EC9D  F012         	call	_gpio_pin_direction_intialize	;wreg free
  2549   002F90  6E0F               	movwf	gpio_pin_intialize@ret^0,c
  2550                           
  2551                           ;mcal_layer/GPIO/hal_gpio.c: 127:               ret=gpio_pin_write_logic(pin_config,pin_
      +                          config->logic);
  2552   002F92  C00C  F002         	movff	gpio_pin_intialize@pin_config,gpio_pin_write_logic@pin_config
  2553   002F96  C00D  F003         	movff	gpio_pin_intialize@pin_config+1,gpio_pin_write_logic@pin_config+1
  2554   002F9A  C00C  FFD9         	movff	gpio_pin_intialize@pin_config,fsr2l
  2555   002F9E  C00D  FFDA         	movff	gpio_pin_intialize@pin_config+1,fsr2h
  2556   002FA2  0E00               	movlw	0
  2557   002FA4  BEDF               	btfsc	indf2,7,c
  2558   002FA6  0E01               	movlw	1
  2559   002FA8  6E04               	movwf	gpio_pin_write_logic@logic^0,c
  2560   002FAA  EC3F  F013         	call	_gpio_pin_write_logic	;wreg free
  2561   002FAE  6E0F               	movwf	gpio_pin_intialize@ret^0,c
  2562   002FB0                     l5841:
  2563                           
  2564                           ;mcal_layer/GPIO/hal_gpio.c: 135:     return ret;
  2565   002FB0  500F               	movf	gpio_pin_intialize@ret^0,w,c
  2566   002FB2  0012               	return		;funcret
  2567   002FB4                     __end_of_gpio_pin_intialize:
  2568                           	callstack 0
  2569                           
  2570 ;; *************** function _gpio_pin_write_logic *****************
  2571 ;; Defined at:
  2572 ;;		line 63 in file "mcal_layer/GPIO/hal_gpio.c"
  2573 ;; Parameters:    Size  Location     Type
  2574 ;;  pin_config      2    1[COMRAM] PTR const struct .
  2575 ;;		 -> relay_turn_off@object(1), relay_turn_on@object(1), relay_initialize@object(1), led_turn_off@object(1), 
  2576 ;;		 -> led_turn_on@object(1), led_initialize@object(1), dc_motor_stop@motor_con2(1), dc_motor_stop@motor_con1(1), 
  2577 ;;		 -> dc_motor_move_left@motor_con2(1), dc_motor_move_left@motor_con1(1), dc_motor_move_right@motor_con2(1), dc_motor_
      +move_right@motor_con1(1), 
  2578 ;;		 -> dc_motor_initialize@motor_con2(1), dc_motor_initialize@motor_con1(1), 
  2579 ;;  logic           1    3[COMRAM] enum E2968
  2580 ;; Auto vars:     Size  Location     Type
  2581 ;;  ret             1   10[COMRAM] unsigned char 
  2582 ;; Return value:  Size  Location     Type
  2583 ;;                  1    wreg      unsigned char 
  2584 ;; Registers used:
  2585 ;;		wreg, fsr2l, fsr2h, status,2, status,0, prodl, prodh
  2586 ;; Tracked objects:
  2587 ;;		On entry : 0/0
  2588 ;;		On exit  : 0/0
  2589 ;;		Unchanged: 0/0
  2590 ;; Data sizes:     COMRAM   BANK0   BANK1   BANK2   BANK3   BANK4   BANK5   BANK6   BANK7   BANK8   BANK9  BANK10  BANK1
      +1  BANK12  BANK13  BANK14  BANK15
  2591 ;;      Params:         3       0       0       0       0       0       0       0       0       0       0       0       
      +0       0       0       0       0
  2592 ;;      Locals:         1       0       0       0       0       0       0       0       0       0       0       0       
      +0       0       0       0       0
  2593 ;;      Temps:          6       0       0       0       0       0       0       0       0       0       0       0       
      +0       0       0       0       0
  2594 ;;      Totals:        10       0       0       0       0       0       0       0       0       0       0       0       
      +0       0       0       0       0
  2595 ;;Total ram usage:       10 bytes
  2596 ;; Hardware stack levels used: 1
  2597 ;; Hardware stack levels required when called: 2
  2598 ;; This function calls:
  2599 ;;		Nothing
  2600 ;; This function is called by:
  2601 ;;		_dc_motor_move_right
  2602 ;;		_dc_motor_move_left
  2603 ;;		_dc_motor_stop
  2604 ;;		_led_turn_on
  2605 ;;		_led_turn_off
  2606 ;;		_gpio_pin_intialize
  2607 ;;		_seven_segement_write_number
  2608 ;;		_lcd_4bit_send_command
  2609 ;;		_lcd_4bit_send_char_data
  2610 ;;		_lcd_8bit_send_command
  2611 ;;		_lcd_8bit_send_char_data
  2612 ;;		_lcd_send_4bits
  2613 ;;		_lcd_4bit_send_enable_signal
  2614 ;;		_lcd_8bit_send_enable_signal
  2615 ;;		_keypad_get_value
  2616 ;;		_relay_turn_on
  2617 ;;		_relay_turn_off
  2618 ;; This function uses a non-reentrant model
  2619 ;;
  2620                           
  2621                           	psect	text12
  2622   00267E                     __ptext12:
  2623                           	callstack 0
  2624   00267E                     _gpio_pin_write_logic:
  2625                           	callstack 27
  2626   00267E                     
  2627                           ;mcal_layer/GPIO/hal_gpio.c: 64:     Std_returntype ret = ( Std_returntype)0x01 ;
  2628   00267E  0E01               	movlw	1
  2629   002680  6E0B               	movwf	gpio_pin_write_logic@ret^0,c
  2630   002682                     
  2631                           ;mcal_layer/GPIO/hal_gpio.c: 65:           if(((void*)0)==pin_config || pin_config->pin>
      +                           8 -1 ){
  2632   002682  5002               	movf	gpio_pin_write_logic@pin_config^0,w,c
  2633   002684  1003               	iorwf	(gpio_pin_write_logic@pin_config+1)^0,w,c
  2634   002686  B4D8               	btfsc	status,2,c
  2635   002688  EF48  F013         	goto	u3971
  2636   00268C  EF4A  F013         	goto	u3970
  2637   002690                     u3971:
  2638   002690  EF5B  F013         	goto	l5359
  2639   002694                     u3970:
  2640   002694  C002  FFD9         	movff	gpio_pin_write_logic@pin_config,fsr2l
  2641   002698  C003  FFDA         	movff	gpio_pin_write_logic@pin_config+1,fsr2h
  2642   00269C  30DF               	rrcf	223,w,c
  2643   00269E  32E8               	rrcf	wreg,f,c
  2644   0026A0  32E8               	rrcf	wreg,f,c
  2645   0026A2  0B07               	andlw	7
  2646   0026A4  6E05               	movwf	??_gpio_pin_write_logic^0,c
  2647   0026A6  0E07               	movlw	7
  2648   0026A8  6405               	cpfsgt	??_gpio_pin_write_logic^0,c
  2649   0026AA  EF59  F013         	goto	u3981
  2650   0026AE  EF5B  F013         	goto	u3980
  2651   0026B2                     u3981:
  2652   0026B2  EFBE  F013         	goto	l5367
  2653   0026B6                     u3980:
  2654   0026B6                     l5359:
  2655                           
  2656                           ;mcal_layer/GPIO/hal_gpio.c: 66:              ret= ( Std_returntype)0x00 ; }
  2657   0026B6  0E00               	movlw	0
  2658   0026B8  6E0B               	movwf	gpio_pin_write_logic@ret^0,c
  2659   0026BA  EFD3  F013         	goto	l5369
  2660   0026BE                     l5361:
  2661                           
  2662                           ;mcal_layer/GPIO/hal_gpio.c: 71:                   *lat_register[pin_config->port] &=~(1
      +                           <<pin_config->pin);
  2663   0026BE  C002  FFD9         	movff	gpio_pin_write_logic@pin_config,fsr2l
  2664   0026C2  C003  FFDA         	movff	gpio_pin_write_logic@pin_config+1,fsr2h
  2665   0026C6  30DF               	rrcf	223,w,c
  2666   0026C8  32E8               	rrcf	wreg,f,c
  2667   0026CA  32E8               	rrcf	wreg,f,c
  2668   0026CC  0B07               	andlw	7
  2669   0026CE  6E05               	movwf	??_gpio_pin_write_logic^0,c
  2670   0026D0  0E01               	movlw	1
  2671   0026D2  6E06               	movwf	(??_gpio_pin_write_logic+1)^0,c
  2672   0026D4  2A05               	incf	??_gpio_pin_write_logic^0,f,c
  2673   0026D6  EF6F  F013         	goto	u3994
  2674   0026DA                     u3995:
  2675   0026DA  90D8               	bcf	status,0,c
  2676   0026DC  3606               	rlcf	(??_gpio_pin_write_logic+1)^0,f,c
  2677   0026DE                     u3994:
  2678   0026DE  2E05               	decfsz	??_gpio_pin_write_logic^0,f,c
  2679   0026E0  EF6D  F013         	goto	u3995
  2680   0026E4  5006               	movf	(??_gpio_pin_write_logic+1)^0,w,c
  2681   0026E6  0AFF               	xorlw	255
  2682   0026E8  6E07               	movwf	(??_gpio_pin_write_logic+2)^0,c
  2683   0026EA  C002  FFD9         	movff	gpio_pin_write_logic@pin_config,fsr2l
  2684   0026EE  C003  FFDA         	movff	gpio_pin_write_logic@pin_config+1,fsr2h
  2685   0026F2  50DF               	movf	223,w,c
  2686   0026F4  0B07               	andlw	7
  2687   0026F6  6E08               	movwf	(??_gpio_pin_write_logic+3)^0,c
  2688   0026F8  5008               	movf	(??_gpio_pin_write_logic+3)^0,w,c
  2689   0026FA  0D02               	mullw	2
  2690   0026FC  0E9E               	movlw	low _lat_register
  2691   0026FE  24F3               	addwf	243,w,c
  2692   002700  6ED9               	movwf	fsr2l,c
  2693   002702  0E00               	movlw	high _lat_register
  2694   002704  20F4               	addwfc	prodh,w,c
  2695   002706  6EDA               	movwf	fsr2h,c
  2696   002708  CFDE F009          	movff	postinc2,??_gpio_pin_write_logic+4
  2697   00270C  CFDD F00A          	movff	postdec2,??_gpio_pin_write_logic+5
  2698   002710  C009  FFD9         	movff	??_gpio_pin_write_logic+4,fsr2l
  2699   002714  C00A  FFDA         	movff	??_gpio_pin_write_logic+5,fsr2h
  2700   002718  5007               	movf	(??_gpio_pin_write_logic+2)^0,w,c
  2701   00271A  16DF               	andwf	indf2,f,c
  2702                           
  2703                           ;mcal_layer/GPIO/hal_gpio.c: 72:                   break;
  2704   00271C  EFD3  F013         	goto	l5369
  2705   002720                     l5363:
  2706                           
  2707                           ;mcal_layer/GPIO/hal_gpio.c: 74:                   *lat_register[pin_config->port] |=(1 
      +                          <<pin_config->pin);
  2708   002720  C002  FFD9         	movff	gpio_pin_write_logic@pin_config,fsr2l
  2709   002724  C003  FFDA         	movff	gpio_pin_write_logic@pin_config+1,fsr2h
  2710   002728  30DF               	rrcf	223,w,c
  2711   00272A  32E8               	rrcf	wreg,f,c
  2712   00272C  32E8               	rrcf	wreg,f,c
  2713   00272E  0B07               	andlw	7
  2714   002730  6E05               	movwf	??_gpio_pin_write_logic^0,c
  2715   002732  0E01               	movlw	1
  2716   002734  6E06               	movwf	(??_gpio_pin_write_logic+1)^0,c
  2717   002736  2A05               	incf	??_gpio_pin_write_logic^0,f,c
  2718   002738  EFA0  F013         	goto	u4004
  2719   00273C                     u4005:
  2720   00273C  90D8               	bcf	status,0,c
  2721   00273E  3606               	rlcf	(??_gpio_pin_write_logic+1)^0,f,c
  2722   002740                     u4004:
  2723   002740  2E05               	decfsz	??_gpio_pin_write_logic^0,f,c
  2724   002742  EF9E  F013         	goto	u4005
  2725   002746  C002  FFD9         	movff	gpio_pin_write_logic@pin_config,fsr2l
  2726   00274A  C003  FFDA         	movff	gpio_pin_write_logic@pin_config+1,fsr2h
  2727   00274E  50DF               	movf	223,w,c
  2728   002750  0B07               	andlw	7
  2729   002752  6E07               	movwf	(??_gpio_pin_write_logic+2)^0,c
  2730   002754  5007               	movf	(??_gpio_pin_write_logic+2)^0,w,c
  2731   002756  0D02               	mullw	2
  2732   002758  0E9E               	movlw	low _lat_register
  2733   00275A  24F3               	addwf	243,w,c
  2734   00275C  6ED9               	movwf	fsr2l,c
  2735   00275E  0E00               	movlw	high _lat_register
  2736   002760  20F4               	addwfc	prodh,w,c
  2737   002762  6EDA               	movwf	fsr2h,c
  2738   002764  CFDE F008          	movff	postinc2,??_gpio_pin_write_logic+3
  2739   002768  CFDD F009          	movff	postdec2,??_gpio_pin_write_logic+4
  2740   00276C  C008  FFD9         	movff	??_gpio_pin_write_logic+3,fsr2l
  2741   002770  C009  FFDA         	movff	??_gpio_pin_write_logic+4,fsr2h
  2742   002774  5006               	movf	(??_gpio_pin_write_logic+1)^0,w,c
  2743   002776  12DF               	iorwf	indf2,f,c
  2744                           
  2745                           ;mcal_layer/GPIO/hal_gpio.c: 75:                   break;
  2746   002778  EFD3  F013         	goto	l5369
  2747   00277C                     l5367:
  2748   00277C  5004               	movf	gpio_pin_write_logic@logic^0,w,c
  2749   00277E  6E05               	movwf	??_gpio_pin_write_logic^0,c
  2750   002780  6A06               	clrf	(??_gpio_pin_write_logic+1)^0,c
  2751                           
  2752                           ; Switch on 2 bytes has been partitioned into a top level switch of size 1, and 1 sub-sw
      +                          itches
  2753                           ; Switch size 1, requested type "simple"
  2754                           ; Number of cases is 1, Range of values is 0 to 0
  2755                           ; switch strategies available:
  2756                           ; Name         Instructions Cycles
  2757                           ; simple_byte            4     3 (average)
  2758                           ;	Chosen strategy is simple_byte
  2759   002782  5006               	movf	(??_gpio_pin_write_logic+1)^0,w,c
  2760   002784  0A00               	xorlw	0	; case 0
  2761   002786  B4D8               	btfsc	status,2,c
  2762   002788  EFC8  F013         	goto	l7513
  2763   00278C  EF5B  F013         	goto	l5359
  2764   002790                     l7513:
  2765                           
  2766                           ; Switch size 1, requested type "simple"
  2767                           ; Number of cases is 2, Range of values is 0 to 1
  2768                           ; switch strategies available:
  2769                           ; Name         Instructions Cycles
  2770                           ; simple_byte            7     4 (average)
  2771                           ;	Chosen strategy is simple_byte
  2772   002790  5005               	movf	??_gpio_pin_write_logic^0,w,c
  2773   002792  0A00               	xorlw	0	; case 0
  2774   002794  B4D8               	btfsc	status,2,c
  2775   002796  EF5F  F013         	goto	l5361
  2776   00279A  0A01               	xorlw	1	; case 1
  2777   00279C  B4D8               	btfsc	status,2,c
  2778   00279E  EF90  F013         	goto	l5363
  2779   0027A2  EF5B  F013         	goto	l5359
  2780   0027A6                     l5369:
  2781                           
  2782                           ;mcal_layer/GPIO/hal_gpio.c: 77:     return ret;
  2783   0027A6  500B               	movf	gpio_pin_write_logic@ret^0,w,c
  2784   0027A8  0012               	return		;funcret
  2785   0027AA                     __end_of_gpio_pin_write_logic:
  2786                           	callstack 0
  2787                           
  2788 ;; *************** function _gpio_pin_direction_intialize *****************
  2789 ;; Defined at:
  2790 ;;		line 18 in file "mcal_layer/GPIO/hal_gpio.c"
  2791 ;; Parameters:    Size  Location     Type
  2792 ;;  pin_config      2    1[COMRAM] PTR const struct .
  2793 ;;		 -> relay_initialize@object(1), led_initialize@object(1), dc_motor_initialize@motor_con2(1), dc_motor_initialize@mot
      +or_con1(1), 
  2794 ;; Auto vars:     Size  Location     Type
  2795 ;;  ret             1    9[COMRAM] unsigned char 
  2796 ;; Return value:  Size  Location     Type
  2797 ;;                  1    wreg      unsigned char 
  2798 ;; Registers used:
  2799 ;;		wreg, fsr2l, fsr2h, status,2, status,0, prodl, prodh
  2800 ;; Tracked objects:
  2801 ;;		On entry : 0/0
  2802 ;;		On exit  : 0/0
  2803 ;;		Unchanged: 0/0
  2804 ;; Data sizes:     COMRAM   BANK0   BANK1   BANK2   BANK3   BANK4   BANK5   BANK6   BANK7   BANK8   BANK9  BANK10  BANK1
      +1  BANK12  BANK13  BANK14  BANK15
  2805 ;;      Params:         2       0       0       0       0       0       0       0       0       0       0       0       
      +0       0       0       0       0
  2806 ;;      Locals:         1       0       0       0       0       0       0       0       0       0       0       0       
      +0       0       0       0       0
  2807 ;;      Temps:          6       0       0       0       0       0       0       0       0       0       0       0       
      +0       0       0       0       0
  2808 ;;      Totals:         9       0       0       0       0       0       0       0       0       0       0       0       
      +0       0       0       0       0
  2809 ;;Total ram usage:        9 bytes
  2810 ;; Hardware stack levels used: 1
  2811 ;; Hardware stack levels required when called: 2
  2812 ;; This function calls:
  2813 ;;		Nothing
  2814 ;; This function is called by:
  2815 ;;		_gpio_pin_intialize
  2816 ;;		_button_initialize
  2817 ;;		_keypad_initialize
  2818 ;;		_Interrupt_RBx_Init
  2819 ;;		_Interrupt_INTx_Pin_Init
  2820 ;; This function uses a non-reentrant model
  2821 ;;
  2822                           
  2823                           	psect	text13
  2824   00253A                     __ptext13:
  2825                           	callstack 0
  2826   00253A                     _gpio_pin_direction_intialize:
  2827                           	callstack 25
  2828   00253A                     
  2829                           ;mcal_layer/GPIO/hal_gpio.c: 19:           Std_returntype ret = ( Std_returntype)0x01 ;
  2830   00253A  0E01               	movlw	1
  2831   00253C  6E0A               	movwf	gpio_pin_direction_intialize@ret^0,c
  2832   00253E                     
  2833                           ;mcal_layer/GPIO/hal_gpio.c: 20:           if(((void*)0)==pin_config|| pin_config->pin> 
      +                          8 -1 ){
  2834   00253E  5002               	movf	gpio_pin_direction_intialize@pin_config^0,w,c
  2835   002540  1003               	iorwf	(gpio_pin_direction_intialize@pin_config+1)^0,w,c
  2836   002542  B4D8               	btfsc	status,2,c
  2837   002544  EFA6  F012         	goto	u4011
  2838   002548  EFA8  F012         	goto	u4010
  2839   00254C                     u4011:
  2840   00254C  EFB9  F012         	goto	l5383
  2841   002550                     u4010:
  2842   002550  C002  FFD9         	movff	gpio_pin_direction_intialize@pin_config,fsr2l
  2843   002554  C003  FFDA         	movff	gpio_pin_direction_intialize@pin_config+1,fsr2h
  2844   002558  30DF               	rrcf	223,w,c
  2845   00255A  32E8               	rrcf	wreg,f,c
  2846   00255C  32E8               	rrcf	wreg,f,c
  2847   00255E  0B07               	andlw	7
  2848   002560  6E04               	movwf	??_gpio_pin_direction_intialize^0,c
  2849   002562  0E07               	movlw	7
  2850   002564  6404               	cpfsgt	??_gpio_pin_direction_intialize^0,c
  2851   002566  EFB7  F012         	goto	u4021
  2852   00256A  EFB9  F012         	goto	u4020
  2853   00256E                     u4021:
  2854   00256E  EF1C  F013         	goto	l5391
  2855   002572                     u4020:
  2856   002572                     l5383:
  2857                           
  2858                           ;mcal_layer/GPIO/hal_gpio.c: 21:              ret=( Std_returntype)0x00 ; }
  2859   002572  0E00               	movlw	0
  2860   002574  6E0A               	movwf	gpio_pin_direction_intialize@ret^0,c
  2861   002576  EF3D  F013         	goto	l5393
  2862   00257A                     l5385:
  2863                           
  2864                           ;mcal_layer/GPIO/hal_gpio.c: 26:                   *tris_register[pin_config->port] &=~(
      +                          1 <<pin_config->pin);
  2865   00257A  C002  FFD9         	movff	gpio_pin_direction_intialize@pin_config,fsr2l
  2866   00257E  C003  FFDA         	movff	gpio_pin_direction_intialize@pin_config+1,fsr2h
  2867   002582  30DF               	rrcf	223,w,c
  2868   002584  32E8               	rrcf	wreg,f,c
  2869   002586  32E8               	rrcf	wreg,f,c
  2870   002588  0B07               	andlw	7
  2871   00258A  6E04               	movwf	??_gpio_pin_direction_intialize^0,c
  2872   00258C  0E01               	movlw	1
  2873   00258E  6E05               	movwf	(??_gpio_pin_direction_intialize+1)^0,c
  2874   002590  2A04               	incf	??_gpio_pin_direction_intialize^0,f,c
  2875   002592  EFCD  F012         	goto	u4034
  2876   002596                     u4035:
  2877   002596  90D8               	bcf	status,0,c
  2878   002598  3605               	rlcf	(??_gpio_pin_direction_intialize+1)^0,f,c
  2879   00259A                     u4034:
  2880   00259A  2E04               	decfsz	??_gpio_pin_direction_intialize^0,f,c
  2881   00259C  EFCB  F012         	goto	u4035
  2882   0025A0  5005               	movf	(??_gpio_pin_direction_intialize+1)^0,w,c
  2883   0025A2  0AFF               	xorlw	255
  2884   0025A4  6E06               	movwf	(??_gpio_pin_direction_intialize+2)^0,c
  2885   0025A6  C002  FFD9         	movff	gpio_pin_direction_intialize@pin_config,fsr2l
  2886   0025AA  C003  FFDA         	movff	gpio_pin_direction_intialize@pin_config+1,fsr2h
  2887   0025AE  50DF               	movf	223,w,c
  2888   0025B0  0B07               	andlw	7
  2889   0025B2  6E07               	movwf	(??_gpio_pin_direction_intialize+3)^0,c
  2890   0025B4  5007               	movf	(??_gpio_pin_direction_intialize+3)^0,w,c
  2891   0025B6  0D02               	mullw	2
  2892   0025B8  0EA8               	movlw	low _tris_register
  2893   0025BA  24F3               	addwf	243,w,c
  2894   0025BC  6ED9               	movwf	fsr2l,c
  2895   0025BE  0E00               	movlw	high _tris_register
  2896   0025C0  20F4               	addwfc	prodh,w,c
  2897   0025C2  6EDA               	movwf	fsr2h,c
  2898   0025C4  CFDE F008          	movff	postinc2,??_gpio_pin_direction_intialize+4
  2899   0025C8  CFDD F009          	movff	postdec2,??_gpio_pin_direction_intialize+5
  2900   0025CC  C008  FFD9         	movff	??_gpio_pin_direction_intialize+4,fsr2l
  2901   0025D0  C009  FFDA         	movff	??_gpio_pin_direction_intialize+5,fsr2h
  2902   0025D4  5006               	movf	(??_gpio_pin_direction_intialize+2)^0,w,c
  2903   0025D6  16DF               	andwf	indf2,f,c
  2904                           
  2905                           ;mcal_layer/GPIO/hal_gpio.c: 27:                   break;
  2906   0025D8  EF3D  F013         	goto	l5393
  2907   0025DC                     l5387:
  2908                           
  2909                           ;mcal_layer/GPIO/hal_gpio.c: 29:                   *tris_register[pin_config->port] |=(1
      +                           <<pin_config->pin);
  2910   0025DC  C002  FFD9         	movff	gpio_pin_direction_intialize@pin_config,fsr2l
  2911   0025E0  C003  FFDA         	movff	gpio_pin_direction_intialize@pin_config+1,fsr2h
  2912   0025E4  30DF               	rrcf	223,w,c
  2913   0025E6  32E8               	rrcf	wreg,f,c
  2914   0025E8  32E8               	rrcf	wreg,f,c
  2915   0025EA  0B07               	andlw	7
  2916   0025EC  6E04               	movwf	??_gpio_pin_direction_intialize^0,c
  2917   0025EE  0E01               	movlw	1
  2918   0025F0  6E05               	movwf	(??_gpio_pin_direction_intialize+1)^0,c
  2919   0025F2  2A04               	incf	??_gpio_pin_direction_intialize^0,f,c
  2920   0025F4  EFFE  F012         	goto	u4044
  2921   0025F8                     u4045:
  2922   0025F8  90D8               	bcf	status,0,c
  2923   0025FA  3605               	rlcf	(??_gpio_pin_direction_intialize+1)^0,f,c
  2924   0025FC                     u4044:
  2925   0025FC  2E04               	decfsz	??_gpio_pin_direction_intialize^0,f,c
  2926   0025FE  EFFC  F012         	goto	u4045
  2927   002602  C002  FFD9         	movff	gpio_pin_direction_intialize@pin_config,fsr2l
  2928   002606  C003  FFDA         	movff	gpio_pin_direction_intialize@pin_config+1,fsr2h
  2929   00260A  50DF               	movf	223,w,c
  2930   00260C  0B07               	andlw	7
  2931   00260E  6E06               	movwf	(??_gpio_pin_direction_intialize+2)^0,c
  2932   002610  5006               	movf	(??_gpio_pin_direction_intialize+2)^0,w,c
  2933   002612  0D02               	mullw	2
  2934   002614  0EA8               	movlw	low _tris_register
  2935   002616  24F3               	addwf	243,w,c
  2936   002618  6ED9               	movwf	fsr2l,c
  2937   00261A  0E00               	movlw	high _tris_register
  2938   00261C  20F4               	addwfc	prodh,w,c
  2939   00261E  6EDA               	movwf	fsr2h,c
  2940   002620  CFDE F007          	movff	postinc2,??_gpio_pin_direction_intialize+3
  2941   002624  CFDD F008          	movff	postdec2,??_gpio_pin_direction_intialize+4
  2942   002628  C007  FFD9         	movff	??_gpio_pin_direction_intialize+3,fsr2l
  2943   00262C  C008  FFDA         	movff	??_gpio_pin_direction_intialize+4,fsr2h
  2944   002630  5005               	movf	(??_gpio_pin_direction_intialize+1)^0,w,c
  2945   002632  12DF               	iorwf	indf2,f,c
  2946                           
  2947                           ;mcal_layer/GPIO/hal_gpio.c: 30:                   break;
  2948   002634  EF3D  F013         	goto	l5393
  2949   002638                     l5391:
  2950   002638  C002  FFD9         	movff	gpio_pin_direction_intialize@pin_config,fsr2l
  2951   00263C  C003  FFDA         	movff	gpio_pin_direction_intialize@pin_config+1,fsr2h
  2952   002640  BCDF               	btfsc	indf2,6,c
  2953   002642  EF25  F013         	goto	u4051
  2954   002646  EF28  F013         	goto	u4050
  2955   00264A                     u4051:
  2956   00264A  0E01               	movlw	1
  2957   00264C  EF29  F013         	goto	u4060
  2958   002650                     u4050:
  2959   002650  0E00               	movlw	0
  2960   002652                     u4060:
  2961   002652  6E04               	movwf	??_gpio_pin_direction_intialize^0,c
  2962   002654  6A05               	clrf	(??_gpio_pin_direction_intialize+1)^0,c
  2963                           
  2964                           ; Switch on 2 bytes has been partitioned into a top level switch of size 1, and 1 sub-sw
      +                          itches
  2965                           ; Switch size 1, requested type "simple"
  2966                           ; Number of cases is 1, Range of values is 0 to 0
  2967                           ; switch strategies available:
  2968                           ; Name         Instructions Cycles
  2969                           ; simple_byte            4     3 (average)
  2970                           ;	Chosen strategy is simple_byte
  2971   002656  5005               	movf	(??_gpio_pin_direction_intialize+1)^0,w,c
  2972   002658  0A00               	xorlw	0	; case 0
  2973   00265A  B4D8               	btfsc	status,2,c
  2974   00265C  EF32  F013         	goto	l7515
  2975   002660  EFB9  F012         	goto	l5383
  2976   002664                     l7515:
  2977                           
  2978                           ; Switch size 1, requested type "simple"
  2979                           ; Number of cases is 2, Range of values is 0 to 1
  2980                           ; switch strategies available:
  2981                           ; Name         Instructions Cycles
  2982                           ; simple_byte            7     4 (average)
  2983                           ;	Chosen strategy is simple_byte
  2984   002664  5004               	movf	??_gpio_pin_direction_intialize^0,w,c
  2985   002666  0A00               	xorlw	0	; case 0
  2986   002668  B4D8               	btfsc	status,2,c
  2987   00266A  EFBD  F012         	goto	l5385
  2988   00266E  0A01               	xorlw	1	; case 1
  2989   002670  B4D8               	btfsc	status,2,c
  2990   002672  EFEE  F012         	goto	l5387
  2991   002676  EFB9  F012         	goto	l5383
  2992   00267A                     l5393:
  2993                           
  2994                           ;mcal_layer/GPIO/hal_gpio.c: 33:           return ret ;
  2995   00267A  500A               	movf	gpio_pin_direction_intialize@ret^0,w,c
  2996   00267C  0012               	return		;funcret
  2997   00267E                     __end_of_gpio_pin_direction_intialize:
  2998                           	callstack 0
  2999                           
  3000 ;; *************** function _EUSART_ASYNC_Init *****************
  3001 ;; Defined at:
  3002 ;;		line 16 in file "mcal_layer/usart/hal_usart.c"
  3003 ;; Parameters:    Size  Location     Type
  3004 ;;  _eusart         2   68[COMRAM] PTR const struct .
  3005 ;;		 -> x(16), 
  3006 ;; Auto vars:     Size  Location     Type
  3007 ;;  ret             1   70[COMRAM] unsigned char 
  3008 ;; Return value:  Size  Location     Type
  3009 ;;                  1    wreg      unsigned char 
  3010 ;; Registers used:
  3011 ;;		wreg, fsr2l, fsr2h, status,2, status,0, cstack
  3012 ;; Tracked objects:
  3013 ;;		On entry : 0/0
  3014 ;;		On exit  : 0/0
  3015 ;;		Unchanged: 0/0
  3016 ;; Data sizes:     COMRAM   BANK0   BANK1   BANK2   BANK3   BANK4   BANK5   BANK6   BANK7   BANK8   BANK9  BANK10  BANK1
      +1  BANK12  BANK13  BANK14  BANK15
  3017 ;;      Params:         2       0       0       0       0       0       0       0       0       0       0       0       
      +0       0       0       0       0
  3018 ;;      Locals:         1       0       0       0       0       0       0       0       0       0       0       0       
      +0       0       0       0       0
  3019 ;;      Temps:          0       0       0       0       0       0       0       0       0       0       0       0       
      +0       0       0       0       0
  3020 ;;      Totals:         3       0       0       0       0       0       0       0       0       0       0       0       
      +0       0       0       0       0
  3021 ;;Total ram usage:        3 bytes
  3022 ;; Hardware stack levels used: 1
  3023 ;; Hardware stack levels required when called: 4
  3024 ;; This function calls:
  3025 ;;		_EUSART_ASYNC_RX_Init
  3026 ;;		_EUSART_ASYNC_TX_Init
  3027 ;;		_EUSART_Baud_Rate_Calculation
  3028 ;; This function is called by:
  3029 ;;		_application_int
  3030 ;; This function uses a non-reentrant model
  3031 ;;
  3032                           
  3033                           	psect	text14
  3034   00306C                     __ptext14:
  3035                           	callstack 0
  3036   00306C                     _EUSART_ASYNC_Init:
  3037                           	callstack 25
  3038   00306C                     
  3039                           ;mcal_layer/usart/hal_usart.c: 18:     if(((void*)0) == _eusart){
  3040   00306C  5045               	movf	EUSART_ASYNC_Init@_eusart^0,w,c
  3041   00306E  1046               	iorwf	(EUSART_ASYNC_Init@_eusart+1)^0,w,c
  3042   003070  A4D8               	btfss	status,2,c
  3043   003072  EF3D  F018         	goto	u5081
  3044   003076  EF3F  F018         	goto	u5080
  3045   00307A                     u5081:
  3046   00307A  EF43  F018         	goto	l1457
  3047   00307E                     u5080:
  3048   00307E                     
  3049                           ;mcal_layer/usart/hal_usart.c: 19:         ret = ( Std_returntype)0x00;
  3050   00307E  0E00               	movlw	0
  3051   003080  6E47               	movwf	EUSART_ASYNC_Init@ret^0,c
  3052                           
  3053                           ;mcal_layer/usart/hal_usart.c: 20:     }
  3054   003082  EF5B  F018         	goto	l6065
  3055   003086                     l1457:
  3056                           
  3057                           ;mcal_layer/usart/hal_usart.c: 22:         RCSTAbits.SPEN = 0;
  3058   003086  9EAB               	bcf	171,7,c	;volatile
  3059                           
  3060                           ;mcal_layer/usart/hal_usart.c: 23:          TRISCbits.RC6 = 1;
  3061   003088  8C94               	bsf	148,6,c	;volatile
  3062                           
  3063                           ;mcal_layer/usart/hal_usart.c: 24:         TRISCbits.RC7 = 1;
  3064   00308A  8E94               	bsf	148,7,c	;volatile
  3065   00308C                     
  3066                           ;mcal_layer/usart/hal_usart.c: 25:         EUSART_Baud_Rate_Calculation(_eusart);
  3067   00308C  C045  F039         	movff	EUSART_ASYNC_Init@_eusart,EUSART_Baud_Rate_Calculation@_eusart
  3068   003090  C046  F03A         	movff	EUSART_ASYNC_Init@_eusart+1,EUSART_Baud_Rate_Calculation@_eusart+1
  3069   003094  EC39  F008         	call	_EUSART_Baud_Rate_Calculation	;wreg free
  3070                           
  3071                           ;mcal_layer/usart/hal_usart.c: 26:         EUSART_ASYNC_TX_Init(_eusart);
  3072   003098  C045  F002         	movff	EUSART_ASYNC_Init@_eusart,EUSART_ASYNC_TX_Init@_eusart
  3073   00309C  C046  F003         	movff	EUSART_ASYNC_Init@_eusart+1,EUSART_ASYNC_TX_Init@_eusart+1
  3074   0030A0  EC96  F016         	call	_EUSART_ASYNC_TX_Init	;wreg free
  3075                           
  3076                           ;mcal_layer/usart/hal_usart.c: 27:         EUSART_ASYNC_RX_Init(_eusart);
  3077   0030A4  C045  F002         	movff	EUSART_ASYNC_Init@_eusart,EUSART_ASYNC_RX_Init@_eusart
  3078   0030A8  C046  F003         	movff	EUSART_ASYNC_Init@_eusart+1,EUSART_ASYNC_RX_Init@_eusart+1
  3079   0030AC  EC28  F016         	call	_EUSART_ASYNC_RX_Init	;wreg free
  3080   0030B0                     
  3081                           ;mcal_layer/usart/hal_usart.c: 28:         RCSTAbits.SPEN = 1;
  3082   0030B0  8EAB               	bsf	171,7,c	;volatile
  3083   0030B2                     
  3084                           ;mcal_layer/usart/hal_usart.c: 29:         ret = ( Std_returntype)0x01;
  3085   0030B2  0E01               	movlw	1
  3086   0030B4  6E47               	movwf	EUSART_ASYNC_Init@ret^0,c
  3087   0030B6                     l6065:
  3088                           
  3089                           ;mcal_layer/usart/hal_usart.c: 31:     return ret;
  3090   0030B6  5047               	movf	EUSART_ASYNC_Init@ret^0,w,c
  3091   0030B8  0012               	return		;funcret
  3092   0030BA                     __end_of_EUSART_ASYNC_Init:
  3093                           	callstack 0
  3094                           
  3095 ;; *************** function _EUSART_Baud_Rate_Calculation *****************
  3096 ;; Defined at:
  3097 ;;		line 99 in file "mcal_layer/usart/hal_usart.c"
  3098 ;; Parameters:    Size  Location     Type
  3099 ;;  _eusart         2   56[COMRAM] PTR const struct .
  3100 ;;		 -> x(16), 
  3101 ;; Auto vars:     Size  Location     Type
  3102 ;;  Baud_Rate_Te    4   60[COMRAM] float 
  3103 ;; Return value:  Size  Location     Type
  3104 ;;                  1    wreg      void 
  3105 ;; Registers used:
  3106 ;;		wreg, fsr2l, fsr2h, status,2, status,0, cstack
  3107 ;; Tracked objects:
  3108 ;;		On entry : 0/0
  3109 ;;		On exit  : 0/0
  3110 ;;		Unchanged: 0/0
  3111 ;; Data sizes:     COMRAM   BANK0   BANK1   BANK2   BANK3   BANK4   BANK5   BANK6   BANK7   BANK8   BANK9  BANK10  BANK1
      +1  BANK12  BANK13  BANK14  BANK15
  3112 ;;      Params:         2       0       0       0       0       0       0       0       0       0       0       0       
      +0       0       0       0       0
  3113 ;;      Locals:         8       0       0       0       0       0       0       0       0       0       0       0       
      +0       0       0       0       0
  3114 ;;      Temps:          2       0       0       0       0       0       0       0       0       0       0       0       
      +0       0       0       0       0
  3115 ;;      Totals:        12       0       0       0       0       0       0       0       0       0       0       0       
      +0       0       0       0       0
  3116 ;;Total ram usage:       12 bytes
  3117 ;; Hardware stack levels used: 1
  3118 ;; Hardware stack levels required when called: 3
  3119 ;; This function calls:
  3120 ;;		___fladd
  3121 ;;		___fldiv
  3122 ;;		___fltol
  3123 ;;		___xxtofl
  3124 ;; This function is called by:
  3125 ;;		_EUSART_ASYNC_Init
  3126 ;; This function uses a non-reentrant model
  3127 ;;
  3128                           
  3129                           	psect	text15
  3130   001072                     __ptext15:
  3131                           	callstack 0
  3132   001072                     _EUSART_Baud_Rate_Calculation:
  3133                           	callstack 25
  3134   001072                     
  3135                           ;mcal_layer/usart/hal_usart.c: 100:     float Baud_Rate_Temp = 0;
  3136   001072  0E00               	movlw	0
  3137   001074  6E3D               	movwf	EUSART_Baud_Rate_Calculation@Baud_Rate_Temp^0,c
  3138   001076  0E00               	movlw	0
  3139   001078  6E3E               	movwf	(EUSART_Baud_Rate_Calculation@Baud_Rate_Temp+1)^0,c
  3140   00107A  0E00               	movlw	0
  3141   00107C  6E3F               	movwf	(EUSART_Baud_Rate_Calculation@Baud_Rate_Temp+2)^0,c
  3142   00107E  0E00               	movlw	0
  3143   001080  6E40               	movwf	(EUSART_Baud_Rate_Calculation@Baud_Rate_Temp+3)^0,c
  3144                           
  3145                           ;mcal_layer/usart/hal_usart.c: 101:     switch(_eusart->baudrate_gen_gonfig){
  3146   001082  EF69  F00A         	goto	l5871
  3147   001086                     l1500:
  3148                           
  3149                           ;mcal_layer/usart/hal_usart.c: 103:             TXSTAbits.SYNC = 0;
  3150   001086  98AC               	bcf	172,4,c	;volatile
  3151                           
  3152                           ;mcal_layer/usart/hal_usart.c: 104:             TXSTAbits.BRGH = 0;
  3153   001088  94AC               	bcf	172,2,c	;volatile
  3154                           
  3155                           ;mcal_layer/usart/hal_usart.c: 105:             BAUDCONbits.BRG16 = 0;
  3156   00108A  96B8               	bcf	184,3,c	;volatile
  3157   00108C                     
  3158                           ;mcal_layer/usart/hal_usart.c: 106:             Baud_Rate_Temp = ((8000000 / (float)_eus
      +                          art->baudrate) / 64) - 1;
  3159   00108C  C039  FFD9         	movff	EUSART_Baud_Rate_Calculation@_eusart,fsr2l
  3160   001090  C03A  FFDA         	movff	EUSART_Baud_Rate_Calculation@_eusart+1,fsr2h
  3161   001094  CFDE F03B          	movff	postinc2,??_EUSART_Baud_Rate_Calculation
  3162   001098  CFDD F03C          	movff	postdec2,??_EUSART_Baud_Rate_Calculation+1
  3163   00109C  C03B  F002         	movff	??_EUSART_Baud_Rate_Calculation,___xxtofl@val
  3164   0010A0  C03C  F003         	movff	??_EUSART_Baud_Rate_Calculation+1,___xxtofl@val+1
  3165   0010A4  6A04               	clrf	(___xxtofl@val+2)^0,c
  3166   0010A6  6A05               	clrf	(___xxtofl@val+3)^0,c
  3167   0010A8  0E00               	movlw	0
  3168   0010AA  ECC3  F011         	call	___xxtofl
  3169   0010AE  C002  F014         	movff	?___xxtofl,___fldiv@a
  3170   0010B2  C003  F015         	movff	?___xxtofl+1,___fldiv@a+1
  3171   0010B6  C004  F016         	movff	?___xxtofl+2,___fldiv@a+2
  3172   0010BA  C005  F017         	movff	?___xxtofl+3,___fldiv@a+3
  3173   0010BE  0E00               	movlw	0
  3174   0010C0  6E10               	movwf	___fldiv@b^0,c
  3175   0010C2  0E24               	movlw	36
  3176   0010C4  6E11               	movwf	(___fldiv@b+1)^0,c
  3177   0010C6  0EF4               	movlw	244
  3178   0010C8  6E12               	movwf	(___fldiv@b+2)^0,c
  3179   0010CA  0E4A               	movlw	74
  3180   0010CC  6E13               	movwf	(___fldiv@b+3)^0,c
  3181   0010CE  EC03  F00F         	call	___fldiv	;wreg free
  3182   0010D2  C010  F041         	movff	?___fldiv,_EUSART_Baud_Rate_Calculation$5124
  3183   0010D6  C011  F042         	movff	?___fldiv+1,_EUSART_Baud_Rate_Calculation$5124+1
  3184   0010DA  C012  F043         	movff	?___fldiv+2,_EUSART_Baud_Rate_Calculation$5124+2
  3185   0010DE  C013  F044         	movff	?___fldiv+3,_EUSART_Baud_Rate_Calculation$5124+3
  3186   0010E2                     
  3187                           ;mcal_layer/usart/hal_usart.c: 106:             Baud_Rate_Temp = ((8000000 / (float)_eus
      +                          art->baudrate) / 64) - 1;
  3188   0010E2  0E00               	movlw	0
  3189   0010E4  6E14               	movwf	___fldiv@a^0,c
  3190   0010E6  0E00               	movlw	0
  3191   0010E8  6E15               	movwf	(___fldiv@a+1)^0,c
  3192   0010EA  0E80               	movlw	128
  3193   0010EC  6E16               	movwf	(___fldiv@a+2)^0,c
  3194   0010EE  0E42               	movlw	66
  3195   0010F0  6E17               	movwf	(___fldiv@a+3)^0,c
  3196   0010F2  C041  F010         	movff	_EUSART_Baud_Rate_Calculation$5124,___fldiv@b
  3197   0010F6  C042  F011         	movff	_EUSART_Baud_Rate_Calculation$5124+1,___fldiv@b+1
  3198   0010FA  C043  F012         	movff	_EUSART_Baud_Rate_Calculation$5124+2,___fldiv@b+2
  3199   0010FE  C044  F013         	movff	_EUSART_Baud_Rate_Calculation$5124+3,___fldiv@b+3
  3200   001102  EC03  F00F         	call	___fldiv	;wreg free
  3201   001106  C010  F029         	movff	?___fldiv,___fladd@b
  3202   00110A  C011  F02A         	movff	?___fldiv+1,___fladd@b+1
  3203   00110E  C012  F02B         	movff	?___fldiv+2,___fladd@b+2
  3204   001112  C013  F02C         	movff	?___fldiv+3,___fladd@b+3
  3205   001116  0E00               	movlw	0
  3206   001118  6E2D               	movwf	___fladd@a^0,c
  3207   00111A  0E00               	movlw	0
  3208   00111C  6E2E               	movwf	(___fladd@a+1)^0,c
  3209   00111E  0E80               	movlw	128
  3210   001120  6E2F               	movwf	(___fladd@a+2)^0,c
  3211   001122  0EBF               	movlw	191
  3212   001124  6E30               	movwf	(___fladd@a+3)^0,c
  3213   001126  ECB0  F00A         	call	___fladd	;wreg free
  3214   00112A  C029  F03D         	movff	?___fladd,EUSART_Baud_Rate_Calculation@Baud_Rate_Temp
  3215   00112E  C02A  F03E         	movff	?___fladd+1,EUSART_Baud_Rate_Calculation@Baud_Rate_Temp+1
  3216   001132  C02B  F03F         	movff	?___fladd+2,EUSART_Baud_Rate_Calculation@Baud_Rate_Temp+2
  3217   001136  C02C  F040         	movff	?___fladd+3,EUSART_Baud_Rate_Calculation@Baud_Rate_Temp+3
  3218                           
  3219                           ;mcal_layer/usart/hal_usart.c: 107:             break;
  3220   00113A  EF94  F00A         	goto	l5873
  3221   00113E                     l1502:
  3222                           
  3223                           ;mcal_layer/usart/hal_usart.c: 109:             TXSTAbits.SYNC = 0;
  3224   00113E  98AC               	bcf	172,4,c	;volatile
  3225                           
  3226                           ;mcal_layer/usart/hal_usart.c: 110:             TXSTAbits.BRGH = 1;
  3227   001140  84AC               	bsf	172,2,c	;volatile
  3228                           
  3229                           ;mcal_layer/usart/hal_usart.c: 111:             BAUDCONbits.BRG16 = 0;
  3230   001142  96B8               	bcf	184,3,c	;volatile
  3231   001144                     
  3232                           ;mcal_layer/usart/hal_usart.c: 112:             Baud_Rate_Temp = ((8000000 / (float)_eus
      +                          art->baudrate) / 16) - 1;
  3233   001144  C039  FFD9         	movff	EUSART_Baud_Rate_Calculation@_eusart,fsr2l
  3234   001148  C03A  FFDA         	movff	EUSART_Baud_Rate_Calculation@_eusart+1,fsr2h
  3235   00114C  CFDE F03B          	movff	postinc2,??_EUSART_Baud_Rate_Calculation
  3236   001150  CFDD F03C          	movff	postdec2,??_EUSART_Baud_Rate_Calculation+1
  3237   001154  C03B  F002         	movff	??_EUSART_Baud_Rate_Calculation,___xxtofl@val
  3238   001158  C03C  F003         	movff	??_EUSART_Baud_Rate_Calculation+1,___xxtofl@val+1
  3239   00115C  6A04               	clrf	(___xxtofl@val+2)^0,c
  3240   00115E  6A05               	clrf	(___xxtofl@val+3)^0,c
  3241   001160  0E00               	movlw	0
  3242   001162  ECC3  F011         	call	___xxtofl
  3243   001166  C002  F014         	movff	?___xxtofl,___fldiv@a
  3244   00116A  C003  F015         	movff	?___xxtofl+1,___fldiv@a+1
  3245   00116E  C004  F016         	movff	?___xxtofl+2,___fldiv@a+2
  3246   001172  C005  F017         	movff	?___xxtofl+3,___fldiv@a+3
  3247   001176  0E00               	movlw	0
  3248   001178  6E10               	movwf	___fldiv@b^0,c
  3249   00117A  0E24               	movlw	36
  3250   00117C  6E11               	movwf	(___fldiv@b+1)^0,c
  3251   00117E  0EF4               	movlw	244
  3252   001180  6E12               	movwf	(___fldiv@b+2)^0,c
  3253   001182  0E4A               	movlw	74
  3254   001184  6E13               	movwf	(___fldiv@b+3)^0,c
  3255   001186  EC03  F00F         	call	___fldiv	;wreg free
  3256   00118A  C010  F041         	movff	?___fldiv,_EUSART_Baud_Rate_Calculation$5124
  3257   00118E  C011  F042         	movff	?___fldiv+1,_EUSART_Baud_Rate_Calculation$5124+1
  3258   001192  C012  F043         	movff	?___fldiv+2,_EUSART_Baud_Rate_Calculation$5124+2
  3259   001196  C013  F044         	movff	?___fldiv+3,_EUSART_Baud_Rate_Calculation$5124+3
  3260   00119A                     
  3261                           ;mcal_layer/usart/hal_usart.c: 112:             Baud_Rate_Temp = ((8000000 / (float)_eus
      +                          art->baudrate) / 16) - 1;
  3262   00119A  0E00               	movlw	0
  3263   00119C  6E14               	movwf	___fldiv@a^0,c
  3264   00119E  0E00               	movlw	0
  3265   0011A0  6E15               	movwf	(___fldiv@a+1)^0,c
  3266   0011A2  0E80               	movlw	128
  3267   0011A4  6E16               	movwf	(___fldiv@a+2)^0,c
  3268   0011A6  0E41               	movlw	65
  3269   0011A8  6E17               	movwf	(___fldiv@a+3)^0,c
  3270   0011AA  C041  F010         	movff	_EUSART_Baud_Rate_Calculation$5124,___fldiv@b
  3271   0011AE  C042  F011         	movff	_EUSART_Baud_Rate_Calculation$5124+1,___fldiv@b+1
  3272   0011B2  C043  F012         	movff	_EUSART_Baud_Rate_Calculation$5124+2,___fldiv@b+2
  3273   0011B6  C044  F013         	movff	_EUSART_Baud_Rate_Calculation$5124+3,___fldiv@b+3
  3274   0011BA  EC03  F00F         	call	___fldiv	;wreg free
  3275   0011BE  C010  F029         	movff	?___fldiv,___fladd@b
  3276   0011C2  C011  F02A         	movff	?___fldiv+1,___fladd@b+1
  3277   0011C6  C012  F02B         	movff	?___fldiv+2,___fladd@b+2
  3278   0011CA  C013  F02C         	movff	?___fldiv+3,___fladd@b+3
  3279   0011CE  0E00               	movlw	0
  3280   0011D0  6E2D               	movwf	___fladd@a^0,c
  3281   0011D2  0E00               	movlw	0
  3282   0011D4  6E2E               	movwf	(___fladd@a+1)^0,c
  3283   0011D6  0E80               	movlw	128
  3284   0011D8  6E2F               	movwf	(___fladd@a+2)^0,c
  3285   0011DA  0EBF               	movlw	191
  3286   0011DC  6E30               	movwf	(___fladd@a+3)^0,c
  3287   0011DE  ECB0  F00A         	call	___fladd	;wreg free
  3288   0011E2  C029  F03D         	movff	?___fladd,EUSART_Baud_Rate_Calculation@Baud_Rate_Temp
  3289   0011E6  C02A  F03E         	movff	?___fladd+1,EUSART_Baud_Rate_Calculation@Baud_Rate_Temp+1
  3290   0011EA  C02B  F03F         	movff	?___fladd+2,EUSART_Baud_Rate_Calculation@Baud_Rate_Temp+2
  3291   0011EE  C02C  F040         	movff	?___fladd+3,EUSART_Baud_Rate_Calculation@Baud_Rate_Temp+3
  3292                           
  3293                           ;mcal_layer/usart/hal_usart.c: 113:             break;
  3294   0011F2  EF94  F00A         	goto	l5873
  3295   0011F6                     l1503:
  3296                           
  3297                           ;mcal_layer/usart/hal_usart.c: 115:             TXSTAbits.SYNC = 0;
  3298   0011F6  98AC               	bcf	172,4,c	;volatile
  3299                           
  3300                           ;mcal_layer/usart/hal_usart.c: 116:             TXSTAbits.BRGH = 0;
  3301   0011F8  94AC               	bcf	172,2,c	;volatile
  3302                           
  3303                           ;mcal_layer/usart/hal_usart.c: 117:             BAUDCONbits.BRG16 = 1;
  3304   0011FA  86B8               	bsf	184,3,c	;volatile
  3305   0011FC                     
  3306                           ;mcal_layer/usart/hal_usart.c: 118:             Baud_Rate_Temp = ((8000000 / (float)_eus
      +                          art->baudrate) / 16) - 1;
  3307   0011FC  C039  FFD9         	movff	EUSART_Baud_Rate_Calculation@_eusart,fsr2l
  3308   001200  C03A  FFDA         	movff	EUSART_Baud_Rate_Calculation@_eusart+1,fsr2h
  3309   001204  CFDE F03B          	movff	postinc2,??_EUSART_Baud_Rate_Calculation
  3310   001208  CFDD F03C          	movff	postdec2,??_EUSART_Baud_Rate_Calculation+1
  3311   00120C  C03B  F002         	movff	??_EUSART_Baud_Rate_Calculation,___xxtofl@val
  3312   001210  C03C  F003         	movff	??_EUSART_Baud_Rate_Calculation+1,___xxtofl@val+1
  3313   001214  6A04               	clrf	(___xxtofl@val+2)^0,c
  3314   001216  6A05               	clrf	(___xxtofl@val+3)^0,c
  3315   001218  0E00               	movlw	0
  3316   00121A  ECC3  F011         	call	___xxtofl
  3317   00121E  C002  F014         	movff	?___xxtofl,___fldiv@a
  3318   001222  C003  F015         	movff	?___xxtofl+1,___fldiv@a+1
  3319   001226  C004  F016         	movff	?___xxtofl+2,___fldiv@a+2
  3320   00122A  C005  F017         	movff	?___xxtofl+3,___fldiv@a+3
  3321   00122E  0E00               	movlw	0
  3322   001230  6E10               	movwf	___fldiv@b^0,c
  3323   001232  0E24               	movlw	36
  3324   001234  6E11               	movwf	(___fldiv@b+1)^0,c
  3325   001236  0EF4               	movlw	244
  3326   001238  6E12               	movwf	(___fldiv@b+2)^0,c
  3327   00123A  0E4A               	movlw	74
  3328   00123C  6E13               	movwf	(___fldiv@b+3)^0,c
  3329   00123E  EC03  F00F         	call	___fldiv	;wreg free
  3330   001242  C010  F041         	movff	?___fldiv,_EUSART_Baud_Rate_Calculation$5124
  3331   001246  C011  F042         	movff	?___fldiv+1,_EUSART_Baud_Rate_Calculation$5124+1
  3332   00124A  C012  F043         	movff	?___fldiv+2,_EUSART_Baud_Rate_Calculation$5124+2
  3333   00124E  C013  F044         	movff	?___fldiv+3,_EUSART_Baud_Rate_Calculation$5124+3
  3334   001252                     
  3335                           ;mcal_layer/usart/hal_usart.c: 118:             Baud_Rate_Temp = ((8000000 / (float)_eus
      +                          art->baudrate) / 16) - 1;
  3336   001252  0E00               	movlw	0
  3337   001254  6E14               	movwf	___fldiv@a^0,c
  3338   001256  0E00               	movlw	0
  3339   001258  6E15               	movwf	(___fldiv@a+1)^0,c
  3340   00125A  0E80               	movlw	128
  3341   00125C  6E16               	movwf	(___fldiv@a+2)^0,c
  3342   00125E  0E41               	movlw	65
  3343   001260  6E17               	movwf	(___fldiv@a+3)^0,c
  3344   001262  C041  F010         	movff	_EUSART_Baud_Rate_Calculation$5124,___fldiv@b
  3345   001266  C042  F011         	movff	_EUSART_Baud_Rate_Calculation$5124+1,___fldiv@b+1
  3346   00126A  C043  F012         	movff	_EUSART_Baud_Rate_Calculation$5124+2,___fldiv@b+2
  3347   00126E  C044  F013         	movff	_EUSART_Baud_Rate_Calculation$5124+3,___fldiv@b+3
  3348   001272  EC03  F00F         	call	___fldiv	;wreg free
  3349   001276  C010  F029         	movff	?___fldiv,___fladd@b
  3350   00127A  C011  F02A         	movff	?___fldiv+1,___fladd@b+1
  3351   00127E  C012  F02B         	movff	?___fldiv+2,___fladd@b+2
  3352   001282  C013  F02C         	movff	?___fldiv+3,___fladd@b+3
  3353   001286  0E00               	movlw	0
  3354   001288  6E2D               	movwf	___fladd@a^0,c
  3355   00128A  0E00               	movlw	0
  3356   00128C  6E2E               	movwf	(___fladd@a+1)^0,c
  3357   00128E  0E80               	movlw	128
  3358   001290  6E2F               	movwf	(___fladd@a+2)^0,c
  3359   001292  0EBF               	movlw	191
  3360   001294  6E30               	movwf	(___fladd@a+3)^0,c
  3361   001296  ECB0  F00A         	call	___fladd	;wreg free
  3362   00129A  C029  F03D         	movff	?___fladd,EUSART_Baud_Rate_Calculation@Baud_Rate_Temp
  3363   00129E  C02A  F03E         	movff	?___fladd+1,EUSART_Baud_Rate_Calculation@Baud_Rate_Temp+1
  3364   0012A2  C02B  F03F         	movff	?___fladd+2,EUSART_Baud_Rate_Calculation@Baud_Rate_Temp+2
  3365   0012A6  C02C  F040         	movff	?___fladd+3,EUSART_Baud_Rate_Calculation@Baud_Rate_Temp+3
  3366                           
  3367                           ;mcal_layer/usart/hal_usart.c: 119:             break;
  3368   0012AA  EF94  F00A         	goto	l5873
  3369   0012AE                     l1504:
  3370                           
  3371                           ;mcal_layer/usart/hal_usart.c: 121:             TXSTAbits.SYNC = 0;
  3372   0012AE  98AC               	bcf	172,4,c	;volatile
  3373                           
  3374                           ;mcal_layer/usart/hal_usart.c: 122:             TXSTAbits.BRGH = 1;
  3375   0012B0  84AC               	bsf	172,2,c	;volatile
  3376                           
  3377                           ;mcal_layer/usart/hal_usart.c: 123:             BAUDCONbits.BRG16 = 1;
  3378   0012B2  86B8               	bsf	184,3,c	;volatile
  3379   0012B4                     
  3380                           ;mcal_layer/usart/hal_usart.c: 124:             Baud_Rate_Temp = ((8000000 / (float)_eus
      +                          art->baudrate) / 4) - 1;
  3381   0012B4  C039  FFD9         	movff	EUSART_Baud_Rate_Calculation@_eusart,fsr2l
  3382   0012B8  C03A  FFDA         	movff	EUSART_Baud_Rate_Calculation@_eusart+1,fsr2h
  3383   0012BC  CFDE F03B          	movff	postinc2,??_EUSART_Baud_Rate_Calculation
  3384   0012C0  CFDD F03C          	movff	postdec2,??_EUSART_Baud_Rate_Calculation+1
  3385   0012C4  C03B  F002         	movff	??_EUSART_Baud_Rate_Calculation,___xxtofl@val
  3386   0012C8  C03C  F003         	movff	??_EUSART_Baud_Rate_Calculation+1,___xxtofl@val+1
  3387   0012CC  6A04               	clrf	(___xxtofl@val+2)^0,c
  3388   0012CE  6A05               	clrf	(___xxtofl@val+3)^0,c
  3389   0012D0  0E00               	movlw	0
  3390   0012D2  ECC3  F011         	call	___xxtofl
  3391   0012D6  C002  F014         	movff	?___xxtofl,___fldiv@a
  3392   0012DA  C003  F015         	movff	?___xxtofl+1,___fldiv@a+1
  3393   0012DE  C004  F016         	movff	?___xxtofl+2,___fldiv@a+2
  3394   0012E2  C005  F017         	movff	?___xxtofl+3,___fldiv@a+3
  3395   0012E6  0E00               	movlw	0
  3396   0012E8  6E10               	movwf	___fldiv@b^0,c
  3397   0012EA  0E24               	movlw	36
  3398   0012EC  6E11               	movwf	(___fldiv@b+1)^0,c
  3399   0012EE  0EF4               	movlw	244
  3400   0012F0  6E12               	movwf	(___fldiv@b+2)^0,c
  3401   0012F2  0E4A               	movlw	74
  3402   0012F4  6E13               	movwf	(___fldiv@b+3)^0,c
  3403   0012F6  EC03  F00F         	call	___fldiv	;wreg free
  3404   0012FA  C010  F041         	movff	?___fldiv,_EUSART_Baud_Rate_Calculation$5124
  3405   0012FE  C011  F042         	movff	?___fldiv+1,_EUSART_Baud_Rate_Calculation$5124+1
  3406   001302  C012  F043         	movff	?___fldiv+2,_EUSART_Baud_Rate_Calculation$5124+2
  3407   001306  C013  F044         	movff	?___fldiv+3,_EUSART_Baud_Rate_Calculation$5124+3
  3408   00130A                     
  3409                           ;mcal_layer/usart/hal_usart.c: 124:             Baud_Rate_Temp = ((8000000 / (float)_eus
      +                          art->baudrate) / 4) - 1;
  3410   00130A  0E00               	movlw	0
  3411   00130C  6E14               	movwf	___fldiv@a^0,c
  3412   00130E  0E00               	movlw	0
  3413   001310  6E15               	movwf	(___fldiv@a+1)^0,c
  3414   001312  0E80               	movlw	128
  3415   001314  6E16               	movwf	(___fldiv@a+2)^0,c
  3416   001316  0E40               	movlw	64
  3417   001318  6E17               	movwf	(___fldiv@a+3)^0,c
  3418   00131A  C041  F010         	movff	_EUSART_Baud_Rate_Calculation$5124,___fldiv@b
  3419   00131E  C042  F011         	movff	_EUSART_Baud_Rate_Calculation$5124+1,___fldiv@b+1
  3420   001322  C043  F012         	movff	_EUSART_Baud_Rate_Calculation$5124+2,___fldiv@b+2
  3421   001326  C044  F013         	movff	_EUSART_Baud_Rate_Calculation$5124+3,___fldiv@b+3
  3422   00132A  EC03  F00F         	call	___fldiv	;wreg free
  3423   00132E  C010  F029         	movff	?___fldiv,___fladd@b
  3424   001332  C011  F02A         	movff	?___fldiv+1,___fladd@b+1
  3425   001336  C012  F02B         	movff	?___fldiv+2,___fladd@b+2
  3426   00133A  C013  F02C         	movff	?___fldiv+3,___fladd@b+3
  3427   00133E  0E00               	movlw	0
  3428   001340  6E2D               	movwf	___fladd@a^0,c
  3429   001342  0E00               	movlw	0
  3430   001344  6E2E               	movwf	(___fladd@a+1)^0,c
  3431   001346  0E80               	movlw	128
  3432   001348  6E2F               	movwf	(___fladd@a+2)^0,c
  3433   00134A  0EBF               	movlw	191
  3434   00134C  6E30               	movwf	(___fladd@a+3)^0,c
  3435   00134E  ECB0  F00A         	call	___fladd	;wreg free
  3436   001352  C029  F03D         	movff	?___fladd,EUSART_Baud_Rate_Calculation@Baud_Rate_Temp
  3437   001356  C02A  F03E         	movff	?___fladd+1,EUSART_Baud_Rate_Calculation@Baud_Rate_Temp+1
  3438   00135A  C02B  F03F         	movff	?___fladd+2,EUSART_Baud_Rate_Calculation@Baud_Rate_Temp+2
  3439   00135E  C02C  F040         	movff	?___fladd+3,EUSART_Baud_Rate_Calculation@Baud_Rate_Temp+3
  3440                           
  3441                           ;mcal_layer/usart/hal_usart.c: 125:             break;
  3442   001362  EF94  F00A         	goto	l5873
  3443   001366                     l1505:
  3444                           
  3445                           ;mcal_layer/usart/hal_usart.c: 127:             TXSTAbits.SYNC = 1;
  3446   001366  88AC               	bsf	172,4,c	;volatile
  3447                           
  3448                           ;mcal_layer/usart/hal_usart.c: 128:             BAUDCONbits.BRG16 = 0;
  3449   001368  96B8               	bcf	184,3,c	;volatile
  3450   00136A                     
  3451                           ;mcal_layer/usart/hal_usart.c: 129:             Baud_Rate_Temp = ((8000000 / (float)_eus
      +                          art->baudrate) / 4) - 1;
  3452   00136A  C039  FFD9         	movff	EUSART_Baud_Rate_Calculation@_eusart,fsr2l
  3453   00136E  C03A  FFDA         	movff	EUSART_Baud_Rate_Calculation@_eusart+1,fsr2h
  3454   001372  CFDE F03B          	movff	postinc2,??_EUSART_Baud_Rate_Calculation
  3455   001376  CFDD F03C          	movff	postdec2,??_EUSART_Baud_Rate_Calculation+1
  3456   00137A  C03B  F002         	movff	??_EUSART_Baud_Rate_Calculation,___xxtofl@val
  3457   00137E  C03C  F003         	movff	??_EUSART_Baud_Rate_Calculation+1,___xxtofl@val+1
  3458   001382  6A04               	clrf	(___xxtofl@val+2)^0,c
  3459   001384  6A05               	clrf	(___xxtofl@val+3)^0,c
  3460   001386  0E00               	movlw	0
  3461   001388  ECC3  F011         	call	___xxtofl
  3462   00138C  C002  F014         	movff	?___xxtofl,___fldiv@a
  3463   001390  C003  F015         	movff	?___xxtofl+1,___fldiv@a+1
  3464   001394  C004  F016         	movff	?___xxtofl+2,___fldiv@a+2
  3465   001398  C005  F017         	movff	?___xxtofl+3,___fldiv@a+3
  3466   00139C  0E00               	movlw	0
  3467   00139E  6E10               	movwf	___fldiv@b^0,c
  3468   0013A0  0E24               	movlw	36
  3469   0013A2  6E11               	movwf	(___fldiv@b+1)^0,c
  3470   0013A4  0EF4               	movlw	244
  3471   0013A6  6E12               	movwf	(___fldiv@b+2)^0,c
  3472   0013A8  0E4A               	movlw	74
  3473   0013AA  6E13               	movwf	(___fldiv@b+3)^0,c
  3474   0013AC  EC03  F00F         	call	___fldiv	;wreg free
  3475   0013B0  C010  F041         	movff	?___fldiv,_EUSART_Baud_Rate_Calculation$5124
  3476   0013B4  C011  F042         	movff	?___fldiv+1,_EUSART_Baud_Rate_Calculation$5124+1
  3477   0013B8  C012  F043         	movff	?___fldiv+2,_EUSART_Baud_Rate_Calculation$5124+2
  3478   0013BC  C013  F044         	movff	?___fldiv+3,_EUSART_Baud_Rate_Calculation$5124+3
  3479   0013C0                     
  3480                           ;mcal_layer/usart/hal_usart.c: 129:             Baud_Rate_Temp = ((8000000 / (float)_eus
      +                          art->baudrate) / 4) - 1;
  3481   0013C0  0E00               	movlw	0
  3482   0013C2  6E14               	movwf	___fldiv@a^0,c
  3483   0013C4  0E00               	movlw	0
  3484   0013C6  6E15               	movwf	(___fldiv@a+1)^0,c
  3485   0013C8  0E80               	movlw	128
  3486   0013CA  6E16               	movwf	(___fldiv@a+2)^0,c
  3487   0013CC  0E40               	movlw	64
  3488   0013CE  6E17               	movwf	(___fldiv@a+3)^0,c
  3489   0013D0  C041  F010         	movff	_EUSART_Baud_Rate_Calculation$5124,___fldiv@b
  3490   0013D4  C042  F011         	movff	_EUSART_Baud_Rate_Calculation$5124+1,___fldiv@b+1
  3491   0013D8  C043  F012         	movff	_EUSART_Baud_Rate_Calculation$5124+2,___fldiv@b+2
  3492   0013DC  C044  F013         	movff	_EUSART_Baud_Rate_Calculation$5124+3,___fldiv@b+3
  3493   0013E0  EC03  F00F         	call	___fldiv	;wreg free
  3494   0013E4  C010  F029         	movff	?___fldiv,___fladd@b
  3495   0013E8  C011  F02A         	movff	?___fldiv+1,___fladd@b+1
  3496   0013EC  C012  F02B         	movff	?___fldiv+2,___fladd@b+2
  3497   0013F0  C013  F02C         	movff	?___fldiv+3,___fladd@b+3
  3498   0013F4  0E00               	movlw	0
  3499   0013F6  6E2D               	movwf	___fladd@a^0,c
  3500   0013F8  0E00               	movlw	0
  3501   0013FA  6E2E               	movwf	(___fladd@a+1)^0,c
  3502   0013FC  0E80               	movlw	128
  3503   0013FE  6E2F               	movwf	(___fladd@a+2)^0,c
  3504   001400  0EBF               	movlw	191
  3505   001402  6E30               	movwf	(___fladd@a+3)^0,c
  3506   001404  ECB0  F00A         	call	___fladd	;wreg free
  3507   001408  C029  F03D         	movff	?___fladd,EUSART_Baud_Rate_Calculation@Baud_Rate_Temp
  3508   00140C  C02A  F03E         	movff	?___fladd+1,EUSART_Baud_Rate_Calculation@Baud_Rate_Temp+1
  3509   001410  C02B  F03F         	movff	?___fladd+2,EUSART_Baud_Rate_Calculation@Baud_Rate_Temp+2
  3510   001414  C02C  F040         	movff	?___fladd+3,EUSART_Baud_Rate_Calculation@Baud_Rate_Temp+3
  3511                           
  3512                           ;mcal_layer/usart/hal_usart.c: 130:             break;
  3513   001418  EF94  F00A         	goto	l5873
  3514   00141C                     l1506:
  3515                           
  3516                           ;mcal_layer/usart/hal_usart.c: 132:             TXSTAbits.SYNC = 1;
  3517   00141C  88AC               	bsf	172,4,c	;volatile
  3518                           
  3519                           ;mcal_layer/usart/hal_usart.c: 133:             BAUDCONbits.BRG16 = 1;
  3520   00141E  86B8               	bsf	184,3,c	;volatile
  3521   001420                     
  3522                           ;mcal_layer/usart/hal_usart.c: 134:             Baud_Rate_Temp = ((8000000 / (float)_eus
      +                          art->baudrate) / 4) - 1;
  3523   001420  C039  FFD9         	movff	EUSART_Baud_Rate_Calculation@_eusart,fsr2l
  3524   001424  C03A  FFDA         	movff	EUSART_Baud_Rate_Calculation@_eusart+1,fsr2h
  3525   001428  CFDE F03B          	movff	postinc2,??_EUSART_Baud_Rate_Calculation
  3526   00142C  CFDD F03C          	movff	postdec2,??_EUSART_Baud_Rate_Calculation+1
  3527   001430  C03B  F002         	movff	??_EUSART_Baud_Rate_Calculation,___xxtofl@val
  3528   001434  C03C  F003         	movff	??_EUSART_Baud_Rate_Calculation+1,___xxtofl@val+1
  3529   001438  6A04               	clrf	(___xxtofl@val+2)^0,c
  3530   00143A  6A05               	clrf	(___xxtofl@val+3)^0,c
  3531   00143C  0E00               	movlw	0
  3532   00143E  ECC3  F011         	call	___xxtofl
  3533   001442  C002  F014         	movff	?___xxtofl,___fldiv@a
  3534   001446  C003  F015         	movff	?___xxtofl+1,___fldiv@a+1
  3535   00144A  C004  F016         	movff	?___xxtofl+2,___fldiv@a+2
  3536   00144E  C005  F017         	movff	?___xxtofl+3,___fldiv@a+3
  3537   001452  0E00               	movlw	0
  3538   001454  6E10               	movwf	___fldiv@b^0,c
  3539   001456  0E24               	movlw	36
  3540   001458  6E11               	movwf	(___fldiv@b+1)^0,c
  3541   00145A  0EF4               	movlw	244
  3542   00145C  6E12               	movwf	(___fldiv@b+2)^0,c
  3543   00145E  0E4A               	movlw	74
  3544   001460  6E13               	movwf	(___fldiv@b+3)^0,c
  3545   001462  EC03  F00F         	call	___fldiv	;wreg free
  3546   001466  C010  F041         	movff	?___fldiv,_EUSART_Baud_Rate_Calculation$5124
  3547   00146A  C011  F042         	movff	?___fldiv+1,_EUSART_Baud_Rate_Calculation$5124+1
  3548   00146E  C012  F043         	movff	?___fldiv+2,_EUSART_Baud_Rate_Calculation$5124+2
  3549   001472  C013  F044         	movff	?___fldiv+3,_EUSART_Baud_Rate_Calculation$5124+3
  3550   001476                     
  3551                           ;mcal_layer/usart/hal_usart.c: 134:             Baud_Rate_Temp = ((8000000 / (float)_eus
      +                          art->baudrate) / 4) - 1;
  3552   001476  0E00               	movlw	0
  3553   001478  6E14               	movwf	___fldiv@a^0,c
  3554   00147A  0E00               	movlw	0
  3555   00147C  6E15               	movwf	(___fldiv@a+1)^0,c
  3556   00147E  0E80               	movlw	128
  3557   001480  6E16               	movwf	(___fldiv@a+2)^0,c
  3558   001482  0E40               	movlw	64
  3559   001484  6E17               	movwf	(___fldiv@a+3)^0,c
  3560   001486  C041  F010         	movff	_EUSART_Baud_Rate_Calculation$5124,___fldiv@b
  3561   00148A  C042  F011         	movff	_EUSART_Baud_Rate_Calculation$5124+1,___fldiv@b+1
  3562   00148E  C043  F012         	movff	_EUSART_Baud_Rate_Calculation$5124+2,___fldiv@b+2
  3563   001492  C044  F013         	movff	_EUSART_Baud_Rate_Calculation$5124+3,___fldiv@b+3
  3564   001496  EC03  F00F         	call	___fldiv	;wreg free
  3565   00149A  C010  F029         	movff	?___fldiv,___fladd@b
  3566   00149E  C011  F02A         	movff	?___fldiv+1,___fladd@b+1
  3567   0014A2  C012  F02B         	movff	?___fldiv+2,___fladd@b+2
  3568   0014A6  C013  F02C         	movff	?___fldiv+3,___fladd@b+3
  3569   0014AA  0E00               	movlw	0
  3570   0014AC  6E2D               	movwf	___fladd@a^0,c
  3571   0014AE  0E00               	movlw	0
  3572   0014B0  6E2E               	movwf	(___fladd@a+1)^0,c
  3573   0014B2  0E80               	movlw	128
  3574   0014B4  6E2F               	movwf	(___fladd@a+2)^0,c
  3575   0014B6  0EBF               	movlw	191
  3576   0014B8  6E30               	movwf	(___fladd@a+3)^0,c
  3577   0014BA  ECB0  F00A         	call	___fladd	;wreg free
  3578   0014BE  C029  F03D         	movff	?___fladd,EUSART_Baud_Rate_Calculation@Baud_Rate_Temp
  3579   0014C2  C02A  F03E         	movff	?___fladd+1,EUSART_Baud_Rate_Calculation@Baud_Rate_Temp+1
  3580   0014C6  C02B  F03F         	movff	?___fladd+2,EUSART_Baud_Rate_Calculation@Baud_Rate_Temp+2
  3581   0014CA  C02C  F040         	movff	?___fladd+3,EUSART_Baud_Rate_Calculation@Baud_Rate_Temp+3
  3582                           
  3583                           ;mcal_layer/usart/hal_usart.c: 135:             break;
  3584   0014CE  EF94  F00A         	goto	l5873
  3585   0014D2                     l5871:
  3586   0014D2  EE20 F002          	lfsr	2,2
  3587   0014D6  5039               	movf	EUSART_Baud_Rate_Calculation@_eusart^0,w,c
  3588   0014D8  26D9               	addwf	fsr2l,f,c
  3589   0014DA  503A               	movf	(EUSART_Baud_Rate_Calculation@_eusart+1)^0,w,c
  3590   0014DC  22DA               	addwfc	fsr2h,f,c
  3591   0014DE  50DF               	movf	indf2,w,c
  3592   0014E0  6E3B               	movwf	??_EUSART_Baud_Rate_Calculation^0,c
  3593   0014E2  6A3C               	clrf	(??_EUSART_Baud_Rate_Calculation+1)^0,c
  3594                           
  3595                           ; Switch on 2 bytes has been partitioned into a top level switch of size 1, and 1 sub-sw
      +                          itches
  3596                           ; Switch size 1, requested type "simple"
  3597                           ; Number of cases is 1, Range of values is 0 to 0
  3598                           ; switch strategies available:
  3599                           ; Name         Instructions Cycles
  3600                           ; simple_byte            4     3 (average)
  3601                           ;	Chosen strategy is simple_byte
  3602   0014E4  503C               	movf	(??_EUSART_Baud_Rate_Calculation+1)^0,w,c
  3603   0014E6  0A00               	xorlw	0	; case 0
  3604   0014E8  B4D8               	btfsc	status,2,c
  3605   0014EA  EF79  F00A         	goto	l7517
  3606   0014EE  EF94  F00A         	goto	l5873
  3607   0014F2                     l7517:
  3608                           
  3609                           ; Switch size 1, requested type "simple"
  3610                           ; Number of cases is 6, Range of values is 0 to 5
  3611                           ; switch strategies available:
  3612                           ; Name         Instructions Cycles
  3613                           ; simple_byte           19    10 (average)
  3614                           ;	Chosen strategy is simple_byte
  3615   0014F2  503B               	movf	??_EUSART_Baud_Rate_Calculation^0,w,c
  3616   0014F4  0A00               	xorlw	0	; case 0
  3617   0014F6  B4D8               	btfsc	status,2,c
  3618   0014F8  EF43  F008         	goto	l1500
  3619   0014FC  0A01               	xorlw	1	; case 1
  3620   0014FE  B4D8               	btfsc	status,2,c
  3621   001500  EF9F  F008         	goto	l1502
  3622   001504  0A03               	xorlw	3	; case 2
  3623   001506  B4D8               	btfsc	status,2,c
  3624   001508  EFFB  F008         	goto	l1503
  3625   00150C  0A01               	xorlw	1	; case 3
  3626   00150E  B4D8               	btfsc	status,2,c
  3627   001510  EF57  F009         	goto	l1504
  3628   001514  0A07               	xorlw	7	; case 4
  3629   001516  B4D8               	btfsc	status,2,c
  3630   001518  EFB3  F009         	goto	l1505
  3631   00151C  0A01               	xorlw	1	; case 5
  3632   00151E  B4D8               	btfsc	status,2,c
  3633   001520  EF0E  F00A         	goto	l1506
  3634   001524  EF94  F00A         	goto	l5873
  3635   001528                     l5873:
  3636                           
  3637                           ;mcal_layer/usart/hal_usart.c: 138:     SPBRG = (uint8)((uint32)Baud_Rate_Temp);
  3638   001528  C03D  F002         	movff	EUSART_Baud_Rate_Calculation@Baud_Rate_Temp,___fltol@f1
  3639   00152C  C03E  F003         	movff	EUSART_Baud_Rate_Calculation@Baud_Rate_Temp+1,___fltol@f1+1
  3640   001530  C03F  F004         	movff	EUSART_Baud_Rate_Calculation@Baud_Rate_Temp+2,___fltol@f1+2
  3641   001534  C040  F005         	movff	EUSART_Baud_Rate_Calculation@Baud_Rate_Temp+3,___fltol@f1+3
  3642   001538  ECD5  F013         	call	___fltol	;wreg free
  3643   00153C  5002               	movf	?___fltol^0,w,c
  3644   00153E  6EAF               	movwf	175,c	;volatile
  3645                           
  3646                           ;mcal_layer/usart/hal_usart.c: 139:     SPBRGH = (uint8)(((uint32)Baud_Rate_Temp) >> 8);
  3647   001540  C03D  F002         	movff	EUSART_Baud_Rate_Calculation@Baud_Rate_Temp,___fltol@f1
  3648   001544  C03E  F003         	movff	EUSART_Baud_Rate_Calculation@Baud_Rate_Temp+1,___fltol@f1+1
  3649   001548  C03F  F004         	movff	EUSART_Baud_Rate_Calculation@Baud_Rate_Temp+2,___fltol@f1+2
  3650   00154C  C040  F005         	movff	EUSART_Baud_Rate_Calculation@Baud_Rate_Temp+3,___fltol@f1+3
  3651   001550  ECD5  F013         	call	___fltol	;wreg free
  3652   001554  C003  F002         	movff	?___fltol+1,?___fltol
  3653   001558  6A03               	clrf	(?___fltol+1)^0,c
  3654   00155A  5002               	movf	?___fltol^0,w,c
  3655   00155C  6EB0               	movwf	176,c	;volatile
  3656   00155E  0012               	return		;funcret
  3657   001560                     __end_of_EUSART_Baud_Rate_Calculation:
  3658                           	callstack 0
  3659                           
  3660 ;; *************** function ___xxtofl *****************
  3661 ;; Defined at:
  3662 ;;		line 10 in file "C:\Program Files\Microchip\xc8\v2.41\pic\sources\c99\common\xxtofl.c"
  3663 ;; Parameters:    Size  Location     Type
  3664 ;;  sign            1    wreg     unsigned char 
  3665 ;;  val             4    1[COMRAM] long 
  3666 ;; Auto vars:     Size  Location     Type
  3667 ;;  sign            1    9[COMRAM] unsigned char 
  3668 ;;  arg             4   11[COMRAM] unsigned long 
  3669 ;;  exp             1   10[COMRAM] unsigned char 
  3670 ;; Return value:  Size  Location     Type
  3671 ;;                  4    1[COMRAM] unsigned char 
  3672 ;; Registers used:
  3673 ;;		wreg, status,2, status,0
  3674 ;; Tracked objects:
  3675 ;;		On entry : 0/0
  3676 ;;		On exit  : 0/0
  3677 ;;		Unchanged: 0/0
  3678 ;; Data sizes:     COMRAM   BANK0   BANK1   BANK2   BANK3   BANK4   BANK5   BANK6   BANK7   BANK8   BANK9  BANK10  BANK1
      +1  BANK12  BANK13  BANK14  BANK15
  3679 ;;      Params:         4       0       0       0       0       0       0       0       0       0       0       0       
      +0       0       0       0       0
  3680 ;;      Locals:         6       0       0       0       0       0       0       0       0       0       0       0       
      +0       0       0       0       0
  3681 ;;      Temps:          4       0       0       0       0       0       0       0       0       0       0       0       
      +0       0       0       0       0
  3682 ;;      Totals:        14       0       0       0       0       0       0       0       0       0       0       0       
      +0       0       0       0       0
  3683 ;;Total ram usage:       14 bytes
  3684 ;; Hardware stack levels used: 1
  3685 ;; Hardware stack levels required when called: 2
  3686 ;; This function calls:
  3687 ;;		Nothing
  3688 ;; This function is called by:
  3689 ;;		_EUSART_Baud_Rate_Calculation
  3690 ;;		_I2C_Master_Mode_Clock_Configurations
  3691 ;; This function uses a non-reentrant model
  3692 ;;
  3693                           
  3694                           	psect	text16
  3695   002386                     __ptext16:
  3696                           	callstack 0
  3697   002386                     ___xxtofl:
  3698                           	callstack 25
  3699                           
  3700                           ;incstack = 0
  3701                           ;___xxtofl@sign stored from wreg
  3702   002386  6E0A               	movwf	___xxtofl@sign^0,c
  3703   002388  500A               	movf	___xxtofl@sign^0,w,c
  3704   00238A  B4D8               	btfsc	status,2,c
  3705   00238C  EFCA  F011         	goto	u4761
  3706   002390  EFCC  F011         	goto	u4760
  3707   002394                     u4761:
  3708   002394  EFEE  F011         	goto	l2270
  3709   002398                     u4760:
  3710   002398  BE05               	btfsc	(___xxtofl@val+3)^0,7,c
  3711   00239A  EFD3  F011         	goto	u4770
  3712   00239E  EFD1  F011         	goto	u4771
  3713   0023A2                     u4771:
  3714   0023A2  EFEE  F011         	goto	l2270
  3715   0023A6                     u4770:
  3716   0023A6  C002  F006         	movff	___xxtofl@val,??___xxtofl
  3717   0023AA  C003  F007         	movff	___xxtofl@val+1,??___xxtofl+1
  3718   0023AE  C004  F008         	movff	___xxtofl@val+2,??___xxtofl+2
  3719   0023B2  C005  F009         	movff	___xxtofl@val+3,??___xxtofl+3
  3720   0023B6  1E06               	comf	??___xxtofl^0,f,c
  3721   0023B8  1E07               	comf	(??___xxtofl+1)^0,f,c
  3722   0023BA  1E08               	comf	(??___xxtofl+2)^0,f,c
  3723   0023BC  1E09               	comf	(??___xxtofl+3)^0,f,c
  3724   0023BE  2A06               	incf	??___xxtofl^0,f,c
  3725   0023C0  0E00               	movlw	0
  3726   0023C2  2207               	addwfc	(??___xxtofl+1)^0,f,c
  3727   0023C4  2208               	addwfc	(??___xxtofl+2)^0,f,c
  3728   0023C6  2209               	addwfc	(??___xxtofl+3)^0,f,c
  3729   0023C8  C006  F00C         	movff	??___xxtofl,___xxtofl@arg
  3730   0023CC  C007  F00D         	movff	??___xxtofl+1,___xxtofl@arg+1
  3731   0023D0  C008  F00E         	movff	??___xxtofl+2,___xxtofl@arg+2
  3732   0023D4  C009  F00F         	movff	??___xxtofl+3,___xxtofl@arg+3
  3733   0023D8  EFF6  F011         	goto	l5791
  3734   0023DC                     l2270:
  3735   0023DC  C002  F00C         	movff	___xxtofl@val,___xxtofl@arg
  3736   0023E0  C003  F00D         	movff	___xxtofl@val+1,___xxtofl@arg+1
  3737   0023E4  C004  F00E         	movff	___xxtofl@val+2,___xxtofl@arg+2
  3738   0023E8  C005  F00F         	movff	___xxtofl@val+3,___xxtofl@arg+3
  3739   0023EC                     l5791:
  3740   0023EC  5002               	movf	___xxtofl@val^0,w,c
  3741   0023EE  1003               	iorwf	(___xxtofl@val+1)^0,w,c
  3742   0023F0  1004               	iorwf	(___xxtofl@val+2)^0,w,c
  3743   0023F2  1005               	iorwf	(___xxtofl@val+3)^0,w,c
  3744   0023F4  A4D8               	btfss	status,2,c
  3745   0023F6  EFFF  F011         	goto	u4781
  3746   0023FA  EF01  F012         	goto	u4780
  3747   0023FE                     u4781:
  3748   0023FE  EF0B  F012         	goto	l5797
  3749   002402                     u4780:
  3750   002402  0E00               	movlw	0
  3751   002404  6E02               	movwf	?___xxtofl^0,c
  3752   002406  0E00               	movlw	0
  3753   002408  6E03               	movwf	(?___xxtofl+1)^0,c
  3754   00240A  0E00               	movlw	0
  3755   00240C  6E04               	movwf	(?___xxtofl+2)^0,c
  3756   00240E  0E00               	movlw	0
  3757   002410  6E05               	movwf	(?___xxtofl+3)^0,c
  3758   002412  EF9C  F012         	goto	l2273
  3759   002416                     l5797:
  3760   002416  0E96               	movlw	150
  3761   002418  6E0B               	movwf	___xxtofl@exp^0,c
  3762   00241A  EF15  F012         	goto	l5801
  3763   00241E                     l5799:
  3764   00241E  2A0B               	incf	___xxtofl@exp^0,f,c
  3765   002420  90D8               	bcf	status,0,c
  3766   002422  320F               	rrcf	(___xxtofl@arg+3)^0,f,c
  3767   002424  320E               	rrcf	(___xxtofl@arg+2)^0,f,c
  3768   002426  320D               	rrcf	(___xxtofl@arg+1)^0,f,c
  3769   002428  320C               	rrcf	___xxtofl@arg^0,f,c
  3770   00242A                     l5801:
  3771   00242A  0E00               	movlw	0
  3772   00242C  140C               	andwf	___xxtofl@arg^0,w,c
  3773   00242E  6E06               	movwf	??___xxtofl^0,c
  3774   002430  0E00               	movlw	0
  3775   002432  140D               	andwf	(___xxtofl@arg+1)^0,w,c
  3776   002434  6E07               	movwf	(??___xxtofl+1)^0,c
  3777   002436  0E00               	movlw	0
  3778   002438  140E               	andwf	(___xxtofl@arg+2)^0,w,c
  3779   00243A  6E08               	movwf	(??___xxtofl+2)^0,c
  3780   00243C  0EFE               	movlw	254
  3781   00243E  140F               	andwf	(___xxtofl@arg+3)^0,w,c
  3782   002440  6E09               	movwf	(??___xxtofl+3)^0,c
  3783   002442  5006               	movf	??___xxtofl^0,w,c
  3784   002444  1007               	iorwf	(??___xxtofl+1)^0,w,c
  3785   002446  1008               	iorwf	(??___xxtofl+2)^0,w,c
  3786   002448  1009               	iorwf	(??___xxtofl+3)^0,w,c
  3787   00244A  A4D8               	btfss	status,2,c
  3788   00244C  EF2A  F012         	goto	u4791
  3789   002450  EF2C  F012         	goto	u4790
  3790   002454                     u4791:
  3791   002454  EF0F  F012         	goto	l5799
  3792   002458                     u4790:
  3793   002458  EF3A  F012         	goto	l2277
  3794   00245C                     l5803:
  3795   00245C  2A0B               	incf	___xxtofl@exp^0,f,c
  3796   00245E  0E01               	movlw	1
  3797   002460  260C               	addwf	___xxtofl@arg^0,f,c
  3798   002462  0E00               	movlw	0
  3799   002464  220D               	addwfc	(___xxtofl@arg+1)^0,f,c
  3800   002466  220E               	addwfc	(___xxtofl@arg+2)^0,f,c
  3801   002468  220F               	addwfc	(___xxtofl@arg+3)^0,f,c
  3802   00246A  90D8               	bcf	status,0,c
  3803   00246C  320F               	rrcf	(___xxtofl@arg+3)^0,f,c
  3804   00246E  320E               	rrcf	(___xxtofl@arg+2)^0,f,c
  3805   002470  320D               	rrcf	(___xxtofl@arg+1)^0,f,c
  3806   002472  320C               	rrcf	___xxtofl@arg^0,f,c
  3807   002474                     l2277:
  3808   002474  0E00               	movlw	0
  3809   002476  140C               	andwf	___xxtofl@arg^0,w,c
  3810   002478  6E06               	movwf	??___xxtofl^0,c
  3811   00247A  0E00               	movlw	0
  3812   00247C  140D               	andwf	(___xxtofl@arg+1)^0,w,c
  3813   00247E  6E07               	movwf	(??___xxtofl+1)^0,c
  3814   002480  0E00               	movlw	0
  3815   002482  140E               	andwf	(___xxtofl@arg+2)^0,w,c
  3816   002484  6E08               	movwf	(??___xxtofl+2)^0,c
  3817   002486  0EFF               	movlw	255
  3818   002488  140F               	andwf	(___xxtofl@arg+3)^0,w,c
  3819   00248A  6E09               	movwf	(??___xxtofl+3)^0,c
  3820   00248C  5006               	movf	??___xxtofl^0,w,c
  3821   00248E  1007               	iorwf	(??___xxtofl+1)^0,w,c
  3822   002490  1008               	iorwf	(??___xxtofl+2)^0,w,c
  3823   002492  1009               	iorwf	(??___xxtofl+3)^0,w,c
  3824   002494  A4D8               	btfss	status,2,c
  3825   002496  EF4F  F012         	goto	u4801
  3826   00249A  EF51  F012         	goto	u4800
  3827   00249E                     u4801:
  3828   00249E  EF2E  F012         	goto	l5803
  3829   0024A2                     u4800:
  3830   0024A2  EF59  F012         	goto	l5811
  3831   0024A6                     l5809:
  3832   0024A6  060B               	decf	___xxtofl@exp^0,f,c
  3833   0024A8  90D8               	bcf	status,0,c
  3834   0024AA  360C               	rlcf	___xxtofl@arg^0,f,c
  3835   0024AC  360D               	rlcf	(___xxtofl@arg+1)^0,f,c
  3836   0024AE  360E               	rlcf	(___xxtofl@arg+2)^0,f,c
  3837   0024B0  360F               	rlcf	(___xxtofl@arg+3)^0,f,c
  3838   0024B2                     l5811:
  3839   0024B2  BE0E               	btfsc	(___xxtofl@arg+2)^0,7,c
  3840   0024B4  EF5E  F012         	goto	u4811
  3841   0024B8  EF60  F012         	goto	u4810
  3842   0024BC                     u4811:
  3843   0024BC  EF68  F012         	goto	l2284
  3844   0024C0                     u4810:
  3845   0024C0  0E02               	movlw	2
  3846   0024C2  600B               	cpfslt	___xxtofl@exp^0,c
  3847   0024C4  EF66  F012         	goto	u4821
  3848   0024C8  EF68  F012         	goto	u4820
  3849   0024CC                     u4821:
  3850   0024CC  EF53  F012         	goto	l5809
  3851   0024D0                     u4820:
  3852   0024D0                     l2284:
  3853   0024D0  B00B               	btfsc	___xxtofl@exp^0,0,c
  3854   0024D2  EF6D  F012         	goto	u4831
  3855   0024D6  EF6F  F012         	goto	u4830
  3856   0024DA                     u4831:
  3857   0024DA  EF70  F012         	goto	l5817
  3858   0024DE                     u4830:
  3859   0024DE  9E0E               	bcf	(___xxtofl@arg+2)^0,7,c
  3860   0024E0                     l5817:
  3861   0024E0  90D8               	bcf	status,0,c
  3862   0024E2  320B               	rrcf	___xxtofl@exp^0,f,c
  3863   0024E4  C00B  F006         	movff	___xxtofl@exp,??___xxtofl
  3864   0024E8  6A07               	clrf	(??___xxtofl+1)^0,c
  3865   0024EA  6A08               	clrf	(??___xxtofl+2)^0,c
  3866   0024EC  6A09               	clrf	(??___xxtofl+3)^0,c
  3867   0024EE  C006  F009         	movff	??___xxtofl,??___xxtofl+3
  3868   0024F2  6A08               	clrf	(??___xxtofl+2)^0,c
  3869   0024F4  6A07               	clrf	(??___xxtofl+1)^0,c
  3870   0024F6  6A06               	clrf	??___xxtofl^0,c
  3871   0024F8  5006               	movf	??___xxtofl^0,w,c
  3872   0024FA  120C               	iorwf	___xxtofl@arg^0,f,c
  3873   0024FC  5007               	movf	(??___xxtofl+1)^0,w,c
  3874   0024FE  120D               	iorwf	(___xxtofl@arg+1)^0,f,c
  3875   002500  5008               	movf	(??___xxtofl+2)^0,w,c
  3876   002502  120E               	iorwf	(___xxtofl@arg+2)^0,f,c
  3877   002504  5009               	movf	(??___xxtofl+3)^0,w,c
  3878   002506  120F               	iorwf	(___xxtofl@arg+3)^0,f,c
  3879   002508  500A               	movf	___xxtofl@sign^0,w,c
  3880   00250A  B4D8               	btfsc	status,2,c
  3881   00250C  EF8A  F012         	goto	u4841
  3882   002510  EF8C  F012         	goto	u4840
  3883   002514                     u4841:
  3884   002514  EF94  F012         	goto	l5827
  3885   002518                     u4840:
  3886   002518  BE05               	btfsc	(___xxtofl@val+3)^0,7,c
  3887   00251A  EF93  F012         	goto	u4850
  3888   00251E  EF91  F012         	goto	u4851
  3889   002522                     u4851:
  3890   002522  EF94  F012         	goto	l5827
  3891   002526                     u4850:
  3892   002526  8E0F               	bsf	(___xxtofl@arg+3)^0,7,c
  3893   002528                     l5827:
  3894   002528  C00C  F002         	movff	___xxtofl@arg,?___xxtofl
  3895   00252C  C00D  F003         	movff	___xxtofl@arg+1,?___xxtofl+1
  3896   002530  C00E  F004         	movff	___xxtofl@arg+2,?___xxtofl+2
  3897   002534  C00F  F005         	movff	___xxtofl@arg+3,?___xxtofl+3
  3898   002538                     l2273:
  3899   002538  0012               	return		;funcret
  3900   00253A                     __end_of___xxtofl:
  3901                           	callstack 0
  3902                           
  3903 ;; *************** function ___fltol *****************
  3904 ;; Defined at:
  3905 ;;		line 43 in file "C:\Program Files\Microchip\xc8\v2.41\pic\sources\c99\common\fltol.c"
  3906 ;; Parameters:    Size  Location     Type
  3907 ;;  f1              4    1[COMRAM] unsigned char 
  3908 ;; Auto vars:     Size  Location     Type
  3909 ;;  exp1            1   10[COMRAM] unsigned char 
  3910 ;;  sign1           1    9[COMRAM] unsigned char 
  3911 ;; Return value:  Size  Location     Type
  3912 ;;                  4    1[COMRAM] long 
  3913 ;; Registers used:
  3914 ;;		wreg, status,2, status,0
  3915 ;; Tracked objects:
  3916 ;;		On entry : 0/0
  3917 ;;		On exit  : 0/0
  3918 ;;		Unchanged: 0/0
  3919 ;; Data sizes:     COMRAM   BANK0   BANK1   BANK2   BANK3   BANK4   BANK5   BANK6   BANK7   BANK8   BANK9  BANK10  BANK1
      +1  BANK12  BANK13  BANK14  BANK15
  3920 ;;      Params:         4       0       0       0       0       0       0       0       0       0       0       0       
      +0       0       0       0       0
  3921 ;;      Locals:         2       0       0       0       0       0       0       0       0       0       0       0       
      +0       0       0       0       0
  3922 ;;      Temps:          4       0       0       0       0       0       0       0       0       0       0       0       
      +0       0       0       0       0
  3923 ;;      Totals:        10       0       0       0       0       0       0       0       0       0       0       0       
      +0       0       0       0       0
  3924 ;;Total ram usage:       10 bytes
  3925 ;; Hardware stack levels used: 1
  3926 ;; Hardware stack levels required when called: 2
  3927 ;; This function calls:
  3928 ;;		Nothing
  3929 ;; This function is called by:
  3930 ;;		_EUSART_Baud_Rate_Calculation
  3931 ;;		_I2C_Master_Mode_Clock_Configurations
  3932 ;; This function uses a non-reentrant model
  3933 ;;
  3934                           
  3935                           	psect	text17
  3936   0027AA                     __ptext17:
  3937                           	callstack 0
  3938   0027AA                     ___fltol:
  3939                           	callstack 25
  3940   0027AA  3404               	rlcf	(___fltol@f1+2)^0,w,c
  3941   0027AC  3405               	rlcf	(___fltol@f1+3)^0,w,c
  3942   0027AE  6E0B               	movwf	___fltol@exp1^0,c
  3943   0027B0  500B               	movf	___fltol@exp1^0,w,c
  3944   0027B2  A4D8               	btfss	status,2,c
  3945   0027B4  EFDE  F013         	goto	u4691
  3946   0027B8  EFE0  F013         	goto	u4690
  3947   0027BC                     u4691:
  3948   0027BC  EFEA  F013         	goto	l5747
  3949   0027C0                     u4690:
  3950   0027C0                     l5743:
  3951   0027C0  0E00               	movlw	0
  3952   0027C2  6E02               	movwf	?___fltol^0,c
  3953   0027C4  0E00               	movlw	0
  3954   0027C6  6E03               	movwf	(?___fltol+1)^0,c
  3955   0027C8  0E00               	movlw	0
  3956   0027CA  6E04               	movwf	(?___fltol+2)^0,c
  3957   0027CC  0E00               	movlw	0
  3958   0027CE  6E05               	movwf	(?___fltol+3)^0,c
  3959   0027D0  EF57  F014         	goto	l1912
  3960   0027D4                     l5747:
  3961   0027D4  C002  F006         	movff	___fltol@f1,??___fltol
  3962   0027D8  C003  F007         	movff	___fltol@f1+1,??___fltol+1
  3963   0027DC  C004  F008         	movff	___fltol@f1+2,??___fltol+2
  3964   0027E0  C005  F009         	movff	___fltol@f1+3,??___fltol+3
  3965   0027E4  0E20               	movlw	32
  3966   0027E6  EFFA  F013         	goto	u4700
  3967   0027EA                     u4705:
  3968   0027EA  90D8               	bcf	status,0,c
  3969   0027EC  3209               	rrcf	(??___fltol+3)^0,f,c
  3970   0027EE  3208               	rrcf	(??___fltol+2)^0,f,c
  3971   0027F0  3207               	rrcf	(??___fltol+1)^0,f,c
  3972   0027F2  3206               	rrcf	??___fltol^0,f,c
  3973   0027F4                     u4700:
  3974   0027F4  2EE8               	decfsz	wreg,f,c
  3975   0027F6  EFF5  F013         	goto	u4705
  3976   0027FA  5006               	movf	??___fltol^0,w,c
  3977   0027FC  6E0A               	movwf	___fltol@sign1^0,c
  3978   0027FE  8E04               	bsf	(___fltol@f1+2)^0,7,c
  3979   002800  0EFF               	movlw	255
  3980   002802  1602               	andwf	___fltol@f1^0,f,c
  3981   002804  0EFF               	movlw	255
  3982   002806  1603               	andwf	(___fltol@f1+1)^0,f,c
  3983   002808  0EFF               	movlw	255
  3984   00280A  1604               	andwf	(___fltol@f1+2)^0,f,c
  3985   00280C  0E00               	movlw	0
  3986   00280E  1605               	andwf	(___fltol@f1+3)^0,f,c
  3987   002810  0E96               	movlw	150
  3988   002812  5E0B               	subwf	___fltol@exp1^0,f,c
  3989   002814  BE0B               	btfsc	___fltol@exp1^0,7,c
  3990   002816  EF11  F014         	goto	u4710
  3991   00281A  EF0F  F014         	goto	u4711
  3992   00281E                     u4711:
  3993   00281E  EF27  F014         	goto	l5767
  3994   002822                     u4710:
  3995   002822  500B               	movf	___fltol@exp1^0,w,c
  3996   002824  0A80               	xorlw	128
  3997   002826  0F97               	addlw	151
  3998   002828  B0D8               	btfsc	status,0,c
  3999   00282A  EF19  F014         	goto	u4721
  4000   00282E  EF1B  F014         	goto	u4720
  4001   002832                     u4721:
  4002   002832  EF1D  F014         	goto	l5763
  4003   002836                     u4720:
  4004   002836  EFE0  F013         	goto	l5743
  4005   00283A                     l5763:
  4006   00283A  90D8               	bcf	status,0,c
  4007   00283C  3205               	rrcf	(___fltol@f1+3)^0,f,c
  4008   00283E  3204               	rrcf	(___fltol@f1+2)^0,f,c
  4009   002840  3203               	rrcf	(___fltol@f1+1)^0,f,c
  4010   002842  3202               	rrcf	___fltol@f1^0,f,c
  4011   002844  3E0B               	incfsz	___fltol@exp1^0,f,c
  4012   002846  EF1D  F014         	goto	l5763
  4013   00284A  EF3F  F014         	goto	l5777
  4014   00284E                     l5767:
  4015   00284E  0E1F               	movlw	31
  4016   002850  640B               	cpfsgt	___fltol@exp1^0,c
  4017   002852  EF2D  F014         	goto	u4731
  4018   002856  EF2F  F014         	goto	u4730
  4019   00285A                     u4731:
  4020   00285A  EF37  F014         	goto	l5775
  4021   00285E                     u4730:
  4022   00285E  EFE0  F013         	goto	l5743
  4023   002862                     l5773:
  4024   002862  90D8               	bcf	status,0,c
  4025   002864  3602               	rlcf	___fltol@f1^0,f,c
  4026   002866  3603               	rlcf	(___fltol@f1+1)^0,f,c
  4027   002868  3604               	rlcf	(___fltol@f1+2)^0,f,c
  4028   00286A  3605               	rlcf	(___fltol@f1+3)^0,f,c
  4029   00286C  060B               	decf	___fltol@exp1^0,f,c
  4030   00286E                     l5775:
  4031   00286E  500B               	movf	___fltol@exp1^0,w,c
  4032   002870  A4D8               	btfss	status,2,c
  4033   002872  EF3D  F014         	goto	u4741
  4034   002876  EF3F  F014         	goto	u4740
  4035   00287A                     u4741:
  4036   00287A  EF31  F014         	goto	l5773
  4037   00287E                     u4740:
  4038   00287E                     l5777:
  4039   00287E  500A               	movf	___fltol@sign1^0,w,c
  4040   002880  B4D8               	btfsc	status,2,c
  4041   002882  EF45  F014         	goto	u4751
  4042   002886  EF47  F014         	goto	u4750
  4043   00288A                     u4751:
  4044   00288A  EF4F  F014         	goto	l5781
  4045   00288E                     u4750:
  4046   00288E  1E05               	comf	(___fltol@f1+3)^0,f,c
  4047   002890  1E04               	comf	(___fltol@f1+2)^0,f,c
  4048   002892  1E03               	comf	(___fltol@f1+1)^0,f,c
  4049   002894  6C02               	negf	___fltol@f1^0,c
  4050   002896  0E00               	movlw	0
  4051   002898  2203               	addwfc	(___fltol@f1+1)^0,f,c
  4052   00289A  2204               	addwfc	(___fltol@f1+2)^0,f,c
  4053   00289C  2205               	addwfc	(___fltol@f1+3)^0,f,c
  4054   00289E                     l5781:
  4055   00289E  C002  F002         	movff	___fltol@f1,?___fltol
  4056   0028A2  C003  F003         	movff	___fltol@f1+1,?___fltol+1
  4057   0028A6  C004  F004         	movff	___fltol@f1+2,?___fltol+2
  4058   0028AA  C005  F005         	movff	___fltol@f1+3,?___fltol+3
  4059   0028AE                     l1912:
  4060   0028AE  0012               	return		;funcret
  4061   0028B0                     __end_of___fltol:
  4062                           	callstack 0
  4063                           
  4064 ;; *************** function ___fldiv *****************
  4065 ;; Defined at:
  4066 ;;		line 11 in file "C:\Program Files\Microchip\xc8\v2.41\pic\sources\c99\common\sprcdiv.c"
  4067 ;; Parameters:    Size  Location     Type
  4068 ;;  b               4   15[COMRAM] long 
  4069 ;;  a               4   19[COMRAM] long 
  4070 ;; Auto vars:     Size  Location     Type
  4071 ;;  grs             4   34[COMRAM] unsigned long 
  4072 ;;  rem             4   27[COMRAM] unsigned long 
  4073 ;;  new_exp         2   32[COMRAM] short 
  4074 ;;  aexp            1   39[COMRAM] unsigned char 
  4075 ;;  bexp            1   38[COMRAM] unsigned char 
  4076 ;;  sign            1   31[COMRAM] unsigned char 
  4077 ;; Return value:  Size  Location     Type
  4078 ;;                  4   15[COMRAM] unsigned char 
  4079 ;; Registers used:
  4080 ;;		wreg, status,2, status,0
  4081 ;; Tracked objects:
  4082 ;;		On entry : 0/0
  4083 ;;		On exit  : 0/0
  4084 ;;		Unchanged: 0/0
  4085 ;; Data sizes:     COMRAM   BANK0   BANK1   BANK2   BANK3   BANK4   BANK5   BANK6   BANK7   BANK8   BANK9  BANK10  BANK1
      +1  BANK12  BANK13  BANK14  BANK15
  4086 ;;      Params:         8       0       0       0       0       0       0       0       0       0       0       0       
      +0       0       0       0       0
  4087 ;;      Locals:        13       0       0       0       0       0       0       0       0       0       0       0       
      +0       0       0       0       0
  4088 ;;      Temps:          4       0       0       0       0       0       0       0       0       0       0       0       
      +0       0       0       0       0
  4089 ;;      Totals:        25       0       0       0       0       0       0       0       0       0       0       0       
      +0       0       0       0       0
  4090 ;;Total ram usage:       25 bytes
  4091 ;; Hardware stack levels used: 1
  4092 ;; Hardware stack levels required when called: 2
  4093 ;; This function calls:
  4094 ;;		Nothing
  4095 ;; This function is called by:
  4096 ;;		_EUSART_Baud_Rate_Calculation
  4097 ;;		_I2C_Master_Mode_Clock_Configurations
  4098 ;; This function uses a non-reentrant model
  4099 ;;
  4100                           
  4101                           	psect	text18
  4102   001E06                     __ptext18:
  4103                           	callstack 0
  4104   001E06                     ___fldiv:
  4105                           	callstack 25
  4106   001E06  5013               	movf	(___fldiv@b+3)^0,w,c
  4107   001E08  0B80               	andlw	128
  4108   001E0A  6E20               	movwf	___fldiv@sign^0,c
  4109   001E0C  5013               	movf	(___fldiv@b+3)^0,w,c
  4110   001E0E  2413               	addwf	(___fldiv@b+3)^0,w,c
  4111   001E10  6E27               	movwf	___fldiv@bexp^0,c
  4112   001E12  AE12               	btfss	(___fldiv@b+2)^0,7,c
  4113   001E14  EF0E  F00F         	goto	u4461
  4114   001E18  EF10  F00F         	goto	u4460
  4115   001E1C                     u4461:
  4116   001E1C  EF11  F00F         	goto	l5609
  4117   001E20                     u4460:
  4118   001E20  8027               	bsf	___fldiv@bexp^0,0,c
  4119   001E22                     l5609:
  4120   001E22  5027               	movf	___fldiv@bexp^0,w,c
  4121   001E24  B4D8               	btfsc	status,2,c
  4122   001E26  EF17  F00F         	goto	u4471
  4123   001E2A  EF19  F00F         	goto	u4470
  4124   001E2E                     u4471:
  4125   001E2E  EF2E  F00F         	goto	l5619
  4126   001E32                     u4470:
  4127   001E32  2827               	incf	___fldiv@bexp^0,w,c
  4128   001E34  A4D8               	btfss	status,2,c
  4129   001E36  EF1F  F00F         	goto	u4481
  4130   001E3A  EF21  F00F         	goto	u4480
  4131   001E3E                     u4481:
  4132   001E3E  EF29  F00F         	goto	l5615
  4133   001E42                     u4480:
  4134   001E42  0E00               	movlw	0
  4135   001E44  6E10               	movwf	___fldiv@b^0,c
  4136   001E46  0E00               	movlw	0
  4137   001E48  6E11               	movwf	(___fldiv@b+1)^0,c
  4138   001E4A  0E00               	movlw	0
  4139   001E4C  6E12               	movwf	(___fldiv@b+2)^0,c
  4140   001E4E  0E00               	movlw	0
  4141   001E50  6E13               	movwf	(___fldiv@b+3)^0,c
  4142   001E52                     l5615:
  4143   001E52  8E12               	bsf	(___fldiv@b+2)^0,7,c
  4144   001E54  0E00               	movlw	0
  4145   001E56  6E13               	movwf	(___fldiv@b+3)^0,c
  4146   001E58  EF36  F00F         	goto	l5621
  4147   001E5C                     l5619:
  4148   001E5C  0E00               	movlw	0
  4149   001E5E  6E10               	movwf	___fldiv@b^0,c
  4150   001E60  0E00               	movlw	0
  4151   001E62  6E11               	movwf	(___fldiv@b+1)^0,c
  4152   001E64  0E00               	movlw	0
  4153   001E66  6E12               	movwf	(___fldiv@b+2)^0,c
  4154   001E68  0E00               	movlw	0
  4155   001E6A  6E13               	movwf	(___fldiv@b+3)^0,c
  4156   001E6C                     l5621:
  4157   001E6C  5017               	movf	(___fldiv@a+3)^0,w,c
  4158   001E6E  0B80               	andlw	128
  4159   001E70  1A20               	xorwf	___fldiv@sign^0,f,c
  4160   001E72  5017               	movf	(___fldiv@a+3)^0,w,c
  4161   001E74  2417               	addwf	(___fldiv@a+3)^0,w,c
  4162   001E76  6E28               	movwf	___fldiv@aexp^0,c
  4163   001E78  AE16               	btfss	(___fldiv@a+2)^0,7,c
  4164   001E7A  EF41  F00F         	goto	u4491
  4165   001E7E  EF43  F00F         	goto	u4490
  4166   001E82                     u4491:
  4167   001E82  EF44  F00F         	goto	l5629
  4168   001E86                     u4490:
  4169   001E86  8028               	bsf	___fldiv@aexp^0,0,c
  4170   001E88                     l5629:
  4171   001E88  5028               	movf	___fldiv@aexp^0,w,c
  4172   001E8A  B4D8               	btfsc	status,2,c
  4173   001E8C  EF4A  F00F         	goto	u4501
  4174   001E90  EF4C  F00F         	goto	u4500
  4175   001E94                     u4501:
  4176   001E94  EF61  F00F         	goto	l5639
  4177   001E98                     u4500:
  4178   001E98  2828               	incf	___fldiv@aexp^0,w,c
  4179   001E9A  A4D8               	btfss	status,2,c
  4180   001E9C  EF52  F00F         	goto	u4511
  4181   001EA0  EF54  F00F         	goto	u4510
  4182   001EA4                     u4511:
  4183   001EA4  EF5C  F00F         	goto	l5635
  4184   001EA8                     u4510:
  4185   001EA8  0E00               	movlw	0
  4186   001EAA  6E14               	movwf	___fldiv@a^0,c
  4187   001EAC  0E00               	movlw	0
  4188   001EAE  6E15               	movwf	(___fldiv@a+1)^0,c
  4189   001EB0  0E00               	movlw	0
  4190   001EB2  6E16               	movwf	(___fldiv@a+2)^0,c
  4191   001EB4  0E00               	movlw	0
  4192   001EB6  6E17               	movwf	(___fldiv@a+3)^0,c
  4193   001EB8                     l5635:
  4194   001EB8  8E16               	bsf	(___fldiv@a+2)^0,7,c
  4195   001EBA  0E00               	movlw	0
  4196   001EBC  6E17               	movwf	(___fldiv@a+3)^0,c
  4197   001EBE  EF69  F00F         	goto	l5641
  4198   001EC2                     l5639:
  4199   001EC2  0E00               	movlw	0
  4200   001EC4  6E14               	movwf	___fldiv@a^0,c
  4201   001EC6  0E00               	movlw	0
  4202   001EC8  6E15               	movwf	(___fldiv@a+1)^0,c
  4203   001ECA  0E00               	movlw	0
  4204   001ECC  6E16               	movwf	(___fldiv@a+2)^0,c
  4205   001ECE  0E00               	movlw	0
  4206   001ED0  6E17               	movwf	(___fldiv@a+3)^0,c
  4207   001ED2                     l5641:
  4208   001ED2  5014               	movf	___fldiv@a^0,w,c
  4209   001ED4  1015               	iorwf	(___fldiv@a+1)^0,w,c
  4210   001ED6  1016               	iorwf	(___fldiv@a+2)^0,w,c
  4211   001ED8  1017               	iorwf	(___fldiv@a+3)^0,w,c
  4212   001EDA  A4D8               	btfss	status,2,c
  4213   001EDC  EF72  F00F         	goto	u4521
  4214   001EE0  EF74  F00F         	goto	u4520
  4215   001EE4                     u4521:
  4216   001EE4  EF8C  F00F         	goto	l5653
  4217   001EE8                     u4520:
  4218   001EE8  0E00               	movlw	0
  4219   001EEA  6E10               	movwf	___fldiv@b^0,c
  4220   001EEC  0E00               	movlw	0
  4221   001EEE  6E11               	movwf	(___fldiv@b+1)^0,c
  4222   001EF0  0E00               	movlw	0
  4223   001EF2  6E12               	movwf	(___fldiv@b+2)^0,c
  4224   001EF4  0E00               	movlw	0
  4225   001EF6  6E13               	movwf	(___fldiv@b+3)^0,c
  4226   001EF8  0E80               	movlw	128
  4227   001EFA  1212               	iorwf	(___fldiv@b+2)^0,f,c
  4228   001EFC  0E7F               	movlw	127
  4229   001EFE  1213               	iorwf	(___fldiv@b+3)^0,f,c
  4230   001F00                     l5647:
  4231   001F00  5020               	movf	___fldiv@sign^0,w,c
  4232   001F02  1213               	iorwf	(___fldiv@b+3)^0,f,c
  4233   001F04  C010  F010         	movff	___fldiv@b,?___fldiv
  4234   001F08  C011  F011         	movff	___fldiv@b+1,?___fldiv+1
  4235   001F0C  C012  F012         	movff	___fldiv@b+2,?___fldiv+2
  4236   001F10  C013  F013         	movff	___fldiv@b+3,?___fldiv+3
  4237   001F14  EFCF  F010         	goto	l2197
  4238   001F18                     l5653:
  4239   001F18  5027               	movf	___fldiv@bexp^0,w,c
  4240   001F1A  A4D8               	btfss	status,2,c
  4241   001F1C  EF92  F00F         	goto	u4531
  4242   001F20  EF94  F00F         	goto	u4530
  4243   001F24                     u4531:
  4244   001F24  EF9E  F00F         	goto	l5661
  4245   001F28                     u4530:
  4246   001F28  0E00               	movlw	0
  4247   001F2A  6E10               	movwf	?___fldiv^0,c
  4248   001F2C  0E00               	movlw	0
  4249   001F2E  6E11               	movwf	(?___fldiv+1)^0,c
  4250   001F30  0E00               	movlw	0
  4251   001F32  6E12               	movwf	(?___fldiv+2)^0,c
  4252   001F34  0E00               	movlw	0
  4253   001F36  6E13               	movwf	(?___fldiv+3)^0,c
  4254   001F38  EFCF  F010         	goto	l2197
  4255   001F3C                     l5661:
  4256   001F3C  5028               	movf	___fldiv@aexp^0,w,c
  4257   001F3E  C027  F018         	movff	___fldiv@bexp,??___fldiv
  4258   001F42  6A19               	clrf	(??___fldiv+1)^0,c
  4259   001F44  5E18               	subwf	??___fldiv^0,f,c
  4260   001F46  0E00               	movlw	0
  4261   001F48  5A19               	subwfb	(??___fldiv+1)^0,f,c
  4262   001F4A  0E7F               	movlw	127
  4263   001F4C  2418               	addwf	??___fldiv^0,w,c
  4264   001F4E  6E21               	movwf	___fldiv@new_exp^0,c
  4265   001F50  0E00               	movlw	0
  4266   001F52  2019               	addwfc	(??___fldiv+1)^0,w,c
  4267   001F54  6E22               	movwf	(___fldiv@new_exp+1)^0,c
  4268   001F56  C010  F01C         	movff	___fldiv@b,___fldiv@rem
  4269   001F5A  C011  F01D         	movff	___fldiv@b+1,___fldiv@rem+1
  4270   001F5E  C012  F01E         	movff	___fldiv@b+2,___fldiv@rem+2
  4271   001F62  C013  F01F         	movff	___fldiv@b+3,___fldiv@rem+3
  4272   001F66  0E00               	movlw	0
  4273   001F68  6E10               	movwf	___fldiv@b^0,c
  4274   001F6A  0E00               	movlw	0
  4275   001F6C  6E11               	movwf	(___fldiv@b+1)^0,c
  4276   001F6E  0E00               	movlw	0
  4277   001F70  6E12               	movwf	(___fldiv@b+2)^0,c
  4278   001F72  0E00               	movlw	0
  4279   001F74  6E13               	movwf	(___fldiv@b+3)^0,c
  4280   001F76  0E00               	movlw	0
  4281   001F78  6E23               	movwf	___fldiv@grs^0,c
  4282   001F7A  0E00               	movlw	0
  4283   001F7C  6E24               	movwf	(___fldiv@grs+1)^0,c
  4284   001F7E  0E00               	movlw	0
  4285   001F80  6E25               	movwf	(___fldiv@grs+2)^0,c
  4286   001F82  0E00               	movlw	0
  4287   001F84  6E26               	movwf	(___fldiv@grs+3)^0,c
  4288   001F86  0E00               	movlw	0
  4289   001F88  6E28               	movwf	___fldiv@aexp^0,c
  4290   001F8A  EFFF  F00F         	goto	l2199
  4291   001F8E                     l5671:
  4292   001F8E  5028               	movf	___fldiv@aexp^0,w,c
  4293   001F90  B4D8               	btfsc	status,2,c
  4294   001F92  EFCD  F00F         	goto	u4541
  4295   001F96  EFCF  F00F         	goto	u4540
  4296   001F9A                     u4541:
  4297   001F9A  EFE6  F00F         	goto	l5679
  4298   001F9E                     u4540:
  4299   001F9E  90D8               	bcf	status,0,c
  4300   001FA0  361C               	rlcf	___fldiv@rem^0,f,c
  4301   001FA2  361D               	rlcf	(___fldiv@rem+1)^0,f,c
  4302   001FA4  361E               	rlcf	(___fldiv@rem+2)^0,f,c
  4303   001FA6  361F               	rlcf	(___fldiv@rem+3)^0,f,c
  4304   001FA8  90D8               	bcf	status,0,c
  4305   001FAA  3610               	rlcf	___fldiv@b^0,f,c
  4306   001FAC  3611               	rlcf	(___fldiv@b+1)^0,f,c
  4307   001FAE  3612               	rlcf	(___fldiv@b+2)^0,f,c
  4308   001FB0  3613               	rlcf	(___fldiv@b+3)^0,f,c
  4309   001FB2  AE26               	btfss	(___fldiv@grs+3)^0,7,c
  4310   001FB4  EFDE  F00F         	goto	u4551
  4311   001FB8  EFE0  F00F         	goto	u4550
  4312   001FBC                     u4551:
  4313   001FBC  EFE1  F00F         	goto	l2202
  4314   001FC0                     u4550:
  4315   001FC0  8010               	bsf	___fldiv@b^0,0,c
  4316   001FC2                     l2202:
  4317   001FC2  90D8               	bcf	status,0,c
  4318   001FC4  3623               	rlcf	___fldiv@grs^0,f,c
  4319   001FC6  3624               	rlcf	(___fldiv@grs+1)^0,f,c
  4320   001FC8  3625               	rlcf	(___fldiv@grs+2)^0,f,c
  4321   001FCA  3626               	rlcf	(___fldiv@grs+3)^0,f,c
  4322   001FCC                     l5679:
  4323   001FCC  5014               	movf	___fldiv@a^0,w,c
  4324   001FCE  5C1C               	subwf	___fldiv@rem^0,w,c
  4325   001FD0  5015               	movf	(___fldiv@a+1)^0,w,c
  4326   001FD2  581D               	subwfb	(___fldiv@rem+1)^0,w,c
  4327   001FD4  5016               	movf	(___fldiv@a+2)^0,w,c
  4328   001FD6  581E               	subwfb	(___fldiv@rem+2)^0,w,c
  4329   001FD8  5017               	movf	(___fldiv@a+3)^0,w,c
  4330   001FDA  581F               	subwfb	(___fldiv@rem+3)^0,w,c
  4331   001FDC  A0D8               	btfss	status,0,c
  4332   001FDE  EFF3  F00F         	goto	u4561
  4333   001FE2  EFF5  F00F         	goto	u4560
  4334   001FE6                     u4561:
  4335   001FE6  EFFE  F00F         	goto	l5685
  4336   001FEA                     u4560:
  4337   001FEA  8C26               	bsf	(___fldiv@grs+3)^0,6,c
  4338   001FEC  5014               	movf	___fldiv@a^0,w,c
  4339   001FEE  5E1C               	subwf	___fldiv@rem^0,f,c
  4340   001FF0  5015               	movf	(___fldiv@a+1)^0,w,c
  4341   001FF2  5A1D               	subwfb	(___fldiv@rem+1)^0,f,c
  4342   001FF4  5016               	movf	(___fldiv@a+2)^0,w,c
  4343   001FF6  5A1E               	subwfb	(___fldiv@rem+2)^0,f,c
  4344   001FF8  5017               	movf	(___fldiv@a+3)^0,w,c
  4345   001FFA  5A1F               	subwfb	(___fldiv@rem+3)^0,f,c
  4346   001FFC                     l5685:
  4347   001FFC  2A28               	incf	___fldiv@aexp^0,f,c
  4348   001FFE                     l2199:
  4349   001FFE  0E19               	movlw	25
  4350   002000  6428               	cpfsgt	___fldiv@aexp^0,c
  4351   002002  EF05  F010         	goto	u4571
  4352   002006  EF07  F010         	goto	u4570
  4353   00200A                     u4571:
  4354   00200A  EFC7  F00F         	goto	l5671
  4355   00200E                     u4570:
  4356   00200E  501C               	movf	___fldiv@rem^0,w,c
  4357   002010  101D               	iorwf	(___fldiv@rem+1)^0,w,c
  4358   002012  101E               	iorwf	(___fldiv@rem+2)^0,w,c
  4359   002014  101F               	iorwf	(___fldiv@rem+3)^0,w,c
  4360   002016  B4D8               	btfsc	status,2,c
  4361   002018  EF10  F010         	goto	u4581
  4362   00201C  EF12  F010         	goto	u4580
  4363   002020                     u4581:
  4364   002020  EF2A  F010         	goto	l5697
  4365   002024                     u4580:
  4366   002024  8023               	bsf	___fldiv@grs^0,0,c
  4367   002026  EF2A  F010         	goto	l5697
  4368   00202A                     l5691:
  4369   00202A  90D8               	bcf	status,0,c
  4370   00202C  3610               	rlcf	___fldiv@b^0,f,c
  4371   00202E  3611               	rlcf	(___fldiv@b+1)^0,f,c
  4372   002030  3612               	rlcf	(___fldiv@b+2)^0,f,c
  4373   002032  3613               	rlcf	(___fldiv@b+3)^0,f,c
  4374   002034  AE26               	btfss	(___fldiv@grs+3)^0,7,c
  4375   002036  EF1F  F010         	goto	u4591
  4376   00203A  EF21  F010         	goto	u4590
  4377   00203E                     u4591:
  4378   00203E  EF22  F010         	goto	l2208
  4379   002042                     u4590:
  4380   002042  8010               	bsf	___fldiv@b^0,0,c
  4381   002044                     l2208:
  4382   002044  90D8               	bcf	status,0,c
  4383   002046  3623               	rlcf	___fldiv@grs^0,f,c
  4384   002048  3624               	rlcf	(___fldiv@grs+1)^0,f,c
  4385   00204A  3625               	rlcf	(___fldiv@grs+2)^0,f,c
  4386   00204C  3626               	rlcf	(___fldiv@grs+3)^0,f,c
  4387   00204E  0621               	decf	___fldiv@new_exp^0,f,c
  4388   002050  A0D8               	btfss	status,0,c
  4389   002052  0622               	decf	(___fldiv@new_exp+1)^0,f,c
  4390   002054                     l5697:
  4391   002054  AE12               	btfss	(___fldiv@b+2)^0,7,c
  4392   002056  EF2F  F010         	goto	u4601
  4393   00205A  EF31  F010         	goto	u4600
  4394   00205E                     u4601:
  4395   00205E  EF15  F010         	goto	l5691
  4396   002062                     u4600:
  4397   002062  0E00               	movlw	0
  4398   002064  6E28               	movwf	___fldiv@aexp^0,c
  4399   002066  AE26               	btfss	(___fldiv@grs+3)^0,7,c
  4400   002068  EF38  F010         	goto	u4611
  4401   00206C  EF3A  F010         	goto	u4610
  4402   002070                     u4611:
  4403   002070  EF5E  F010         	goto	l2210
  4404   002074                     u4610:
  4405   002074  0EFF               	movlw	255
  4406   002076  1423               	andwf	___fldiv@grs^0,w,c
  4407   002078  6E18               	movwf	??___fldiv^0,c
  4408   00207A  0EFF               	movlw	255
  4409   00207C  1424               	andwf	(___fldiv@grs+1)^0,w,c
  4410   00207E  6E19               	movwf	(??___fldiv+1)^0,c
  4411   002080  0EFF               	movlw	255
  4412   002082  1425               	andwf	(___fldiv@grs+2)^0,w,c
  4413   002084  6E1A               	movwf	(??___fldiv+2)^0,c
  4414   002086  0E7F               	movlw	127
  4415   002088  1426               	andwf	(___fldiv@grs+3)^0,w,c
  4416   00208A  6E1B               	movwf	(??___fldiv+3)^0,c
  4417   00208C  5018               	movf	??___fldiv^0,w,c
  4418   00208E  1019               	iorwf	(??___fldiv+1)^0,w,c
  4419   002090  101A               	iorwf	(??___fldiv+2)^0,w,c
  4420   002092  101B               	iorwf	(??___fldiv+3)^0,w,c
  4421   002094  B4D8               	btfsc	status,2,c
  4422   002096  EF4F  F010         	goto	u4621
  4423   00209A  EF51  F010         	goto	u4620
  4424   00209E                     u4621:
  4425   00209E  EF55  F010         	goto	l2211
  4426   0020A2                     u4620:
  4427   0020A2                     l5705:
  4428   0020A2  0E01               	movlw	1
  4429   0020A4  6E28               	movwf	___fldiv@aexp^0,c
  4430   0020A6  EF5E  F010         	goto	l2210
  4431   0020AA                     l2211:
  4432   0020AA  A010               	btfss	___fldiv@b^0,0,c
  4433   0020AC  EF5A  F010         	goto	u4631
  4434   0020B0  EF5C  F010         	goto	u4630
  4435   0020B4                     u4631:
  4436   0020B4  EF5E  F010         	goto	l2210
  4437   0020B8                     u4630:
  4438   0020B8  EF51  F010         	goto	l5705
  4439   0020BC                     l2210:
  4440   0020BC  5028               	movf	___fldiv@aexp^0,w,c
  4441   0020BE  B4D8               	btfsc	status,2,c
  4442   0020C0  EF64  F010         	goto	u4641
  4443   0020C4  EF66  F010         	goto	u4640
  4444   0020C8                     u4641:
  4445   0020C8  EF8A  F010         	goto	l5717
  4446   0020CC                     u4640:
  4447   0020CC  0E01               	movlw	1
  4448   0020CE  2610               	addwf	___fldiv@b^0,f,c
  4449   0020D0  0E00               	movlw	0
  4450   0020D2  2211               	addwfc	(___fldiv@b+1)^0,f,c
  4451   0020D4  2212               	addwfc	(___fldiv@b+2)^0,f,c
  4452   0020D6  2213               	addwfc	(___fldiv@b+3)^0,f,c
  4453   0020D8  A013               	btfss	(___fldiv@b+3)^0,0,c
  4454   0020DA  EF71  F010         	goto	u4651
  4455   0020DE  EF73  F010         	goto	u4650
  4456   0020E2                     u4651:
  4457   0020E2  EF8A  F010         	goto	l5717
  4458   0020E6                     u4650:
  4459   0020E6  C010  F018         	movff	___fldiv@b,??___fldiv
  4460   0020EA  C011  F019         	movff	___fldiv@b+1,??___fldiv+1
  4461   0020EE  C012  F01A         	movff	___fldiv@b+2,??___fldiv+2
  4462   0020F2  C013  F01B         	movff	___fldiv@b+3,??___fldiv+3
  4463   0020F6  341B               	rlcf	(??___fldiv+3)^0,w,c
  4464   0020F8  321B               	rrcf	(??___fldiv+3)^0,f,c
  4465   0020FA  321A               	rrcf	(??___fldiv+2)^0,f,c
  4466   0020FC  3219               	rrcf	(??___fldiv+1)^0,f,c
  4467   0020FE  3218               	rrcf	??___fldiv^0,f,c
  4468   002100  C018  F010         	movff	??___fldiv,___fldiv@b
  4469   002104  C019  F011         	movff	??___fldiv+1,___fldiv@b+1
  4470   002108  C01A  F012         	movff	??___fldiv+2,___fldiv@b+2
  4471   00210C  C01B  F013         	movff	??___fldiv+3,___fldiv@b+3
  4472   002110  4A21               	infsnz	___fldiv@new_exp^0,f,c
  4473   002112  2A22               	incf	(___fldiv@new_exp+1)^0,f,c
  4474   002114                     l5717:
  4475   002114  BE22               	btfsc	(___fldiv@new_exp+1)^0,7,c
  4476   002116  EF95  F010         	goto	u4661
  4477   00211A  5022               	movf	(___fldiv@new_exp+1)^0,w,c
  4478   00211C  E108               	bnz	u4660
  4479   00211E  2821               	incf	___fldiv@new_exp^0,w,c
  4480   002120  A0D8               	btfss	status,0,c
  4481   002122  EF95  F010         	goto	u4661
  4482   002126  EF97  F010         	goto	u4660
  4483   00212A                     u4661:
  4484   00212A  EFA2  F010         	goto	l5721
  4485   00212E                     u4660:
  4486   00212E  0E00               	movlw	0
  4487   002130  6E22               	movwf	(___fldiv@new_exp+1)^0,c
  4488   002132  6821               	setf	___fldiv@new_exp^0,c
  4489   002134  0E00               	movlw	0
  4490   002136  6E10               	movwf	___fldiv@b^0,c
  4491   002138  0E00               	movlw	0
  4492   00213A  6E11               	movwf	(___fldiv@b+1)^0,c
  4493   00213C  0E00               	movlw	0
  4494   00213E  6E12               	movwf	(___fldiv@b+2)^0,c
  4495   002140  0E00               	movlw	0
  4496   002142  6E13               	movwf	(___fldiv@b+3)^0,c
  4497   002144                     l5721:
  4498   002144  BE22               	btfsc	(___fldiv@new_exp+1)^0,7,c
  4499   002146  EFAF  F010         	goto	u4670
  4500   00214A  5022               	movf	(___fldiv@new_exp+1)^0,w,c
  4501   00214C  E106               	bnz	u4671
  4502   00214E  0421               	decf	___fldiv@new_exp^0,w,c
  4503   002150  B0D8               	btfsc	status,0,c
  4504   002152  EFAD  F010         	goto	u4671
  4505   002156  EFAF  F010         	goto	u4670
  4506   00215A                     u4671:
  4507   00215A  EFBD  F010         	goto	l5725
  4508   00215E                     u4670:
  4509   00215E  0E00               	movlw	0
  4510   002160  6E22               	movwf	(___fldiv@new_exp+1)^0,c
  4511   002162  0E00               	movlw	0
  4512   002164  6E21               	movwf	___fldiv@new_exp^0,c
  4513   002166  0E00               	movlw	0
  4514   002168  6E10               	movwf	___fldiv@b^0,c
  4515   00216A  0E00               	movlw	0
  4516   00216C  6E11               	movwf	(___fldiv@b+1)^0,c
  4517   00216E  0E00               	movlw	0
  4518   002170  6E12               	movwf	(___fldiv@b+2)^0,c
  4519   002172  0E00               	movlw	0
  4520   002174  6E13               	movwf	(___fldiv@b+3)^0,c
  4521   002176  0E00               	movlw	0
  4522   002178  6E20               	movwf	___fldiv@sign^0,c
  4523   00217A                     l5725:
  4524   00217A  C021  F027         	movff	___fldiv@new_exp,___fldiv@bexp
  4525   00217E  A027               	btfss	___fldiv@bexp^0,0,c
  4526   002180  EFC4  F010         	goto	u4681
  4527   002184  EFC6  F010         	goto	u4680
  4528   002188                     u4681:
  4529   002188  EFC9  F010         	goto	l5731
  4530   00218C                     u4680:
  4531   00218C  8E12               	bsf	(___fldiv@b+2)^0,7,c
  4532   00218E  EFCA  F010         	goto	l5733
  4533   002192                     l5731:
  4534   002192  9E12               	bcf	(___fldiv@b+2)^0,7,c
  4535   002194                     l5733:
  4536   002194  90D8               	bcf	status,0,c
  4537   002196  3027               	rrcf	___fldiv@bexp^0,w,c
  4538   002198  6E13               	movwf	(___fldiv@b+3)^0,c
  4539   00219A  EF80  F00F         	goto	l5647
  4540   00219E                     l2197:
  4541   00219E  0012               	return		;funcret
  4542   0021A0                     __end_of___fldiv:
  4543                           	callstack 0
  4544                           
  4545 ;; *************** function ___fladd *****************
  4546 ;; Defined at:
  4547 ;;		line 10 in file "C:\Program Files\Microchip\xc8\v2.41\pic\sources\c99\common\sprcadd.c"
  4548 ;; Parameters:    Size  Location     Type
  4549 ;;  b               4   40[COMRAM] unsigned char 
  4550 ;;  a               4   44[COMRAM] unsigned char 
  4551 ;; Auto vars:     Size  Location     Type
  4552 ;;  grs             1   55[COMRAM] unsigned char 
  4553 ;;  bexp            1   54[COMRAM] unsigned char 
  4554 ;;  aexp            1   53[COMRAM] unsigned char 
  4555 ;;  signs           1   52[COMRAM] unsigned char 
  4556 ;; Return value:  Size  Location     Type
  4557 ;;                  4   40[COMRAM] unsigned char 
  4558 ;; Registers used:
  4559 ;;		wreg, status,2, status,0
  4560 ;; Tracked objects:
  4561 ;;		On entry : 0/0
  4562 ;;		On exit  : 0/0
  4563 ;;		Unchanged: 0/0
  4564 ;; Data sizes:     COMRAM   BANK0   BANK1   BANK2   BANK3   BANK4   BANK5   BANK6   BANK7   BANK8   BANK9  BANK10  BANK1
      +1  BANK12  BANK13  BANK14  BANK15
  4565 ;;      Params:         8       0       0       0       0       0       0       0       0       0       0       0       
      +0       0       0       0       0
  4566 ;;      Locals:         4       0       0       0       0       0       0       0       0       0       0       0       
      +0       0       0       0       0
  4567 ;;      Temps:          4       0       0       0       0       0       0       0       0       0       0       0       
      +0       0       0       0       0
  4568 ;;      Totals:        16       0       0       0       0       0       0       0       0       0       0       0       
      +0       0       0       0       0
  4569 ;;Total ram usage:       16 bytes
  4570 ;; Hardware stack levels used: 1
  4571 ;; Hardware stack levels required when called: 2
  4572 ;; This function calls:
  4573 ;;		Nothing
  4574 ;; This function is called by:
  4575 ;;		_EUSART_Baud_Rate_Calculation
  4576 ;;		_I2C_Master_Mode_Clock_Configurations
  4577 ;; This function uses a non-reentrant model
  4578 ;;
  4579                           
  4580                           	psect	text19
  4581   001560                     __ptext19:
  4582                           	callstack 0
  4583   001560                     ___fladd:
  4584                           	callstack 25
  4585   001560  502C               	movf	(___fladd@b+3)^0,w,c
  4586   001562  0B80               	andlw	128
  4587   001564  6E35               	movwf	___fladd@signs^0,c
  4588   001566  502C               	movf	(___fladd@b+3)^0,w,c
  4589   001568  242C               	addwf	(___fladd@b+3)^0,w,c
  4590   00156A  6E37               	movwf	___fladd@bexp^0,c
  4591   00156C  AE2B               	btfss	(___fladd@b+2)^0,7,c
  4592   00156E  EFBB  F00A         	goto	u4071
  4593   001572  EFBD  F00A         	goto	u4070
  4594   001576                     u4071:
  4595   001576  EFBE  F00A         	goto	l5407
  4596   00157A                     u4070:
  4597   00157A  8037               	bsf	___fladd@bexp^0,0,c
  4598   00157C                     l5407:
  4599   00157C  5037               	movf	___fladd@bexp^0,w,c
  4600   00157E  B4D8               	btfsc	status,2,c
  4601   001580  EFC4  F00A         	goto	u4081
  4602   001584  EFC6  F00A         	goto	u4080
  4603   001588                     u4081:
  4604   001588  EFDB  F00A         	goto	l5417
  4605   00158C                     u4080:
  4606   00158C  2837               	incf	___fladd@bexp^0,w,c
  4607   00158E  A4D8               	btfss	status,2,c
  4608   001590  EFCC  F00A         	goto	u4091
  4609   001594  EFCE  F00A         	goto	u4090
  4610   001598                     u4091:
  4611   001598  EFD6  F00A         	goto	l5413
  4612   00159C                     u4090:
  4613   00159C  0E00               	movlw	0
  4614   00159E  6E29               	movwf	___fladd@b^0,c
  4615   0015A0  0E00               	movlw	0
  4616   0015A2  6E2A               	movwf	(___fladd@b+1)^0,c
  4617   0015A4  0E00               	movlw	0
  4618   0015A6  6E2B               	movwf	(___fladd@b+2)^0,c
  4619   0015A8  0E00               	movlw	0
  4620   0015AA  6E2C               	movwf	(___fladd@b+3)^0,c
  4621   0015AC                     l5413:
  4622   0015AC  8E2B               	bsf	(___fladd@b+2)^0,7,c
  4623   0015AE  0E00               	movlw	0
  4624   0015B0  6E2C               	movwf	(___fladd@b+3)^0,c
  4625   0015B2  EFE3  F00A         	goto	l5419
  4626   0015B6                     l5417:
  4627   0015B6  0E00               	movlw	0
  4628   0015B8  6E29               	movwf	___fladd@b^0,c
  4629   0015BA  0E00               	movlw	0
  4630   0015BC  6E2A               	movwf	(___fladd@b+1)^0,c
  4631   0015BE  0E00               	movlw	0
  4632   0015C0  6E2B               	movwf	(___fladd@b+2)^0,c
  4633   0015C2  0E00               	movlw	0
  4634   0015C4  6E2C               	movwf	(___fladd@b+3)^0,c
  4635   0015C6                     l5419:
  4636   0015C6  5030               	movf	(___fladd@a+3)^0,w,c
  4637   0015C8  0B80               	andlw	128
  4638   0015CA  6E36               	movwf	___fladd@aexp^0,c
  4639   0015CC  5035               	movf	___fladd@signs^0,w,c
  4640   0015CE  1836               	xorwf	___fladd@aexp^0,w,c
  4641   0015D0  B4D8               	btfsc	status,2,c
  4642   0015D2  EFED  F00A         	goto	u4101
  4643   0015D6  EFEF  F00A         	goto	u4100
  4644   0015DA                     u4101:
  4645   0015DA  EFF0  F00A         	goto	l5425
  4646   0015DE                     u4100:
  4647   0015DE  8C35               	bsf	___fladd@signs^0,6,c
  4648   0015E0                     l5425:
  4649   0015E0  5030               	movf	(___fladd@a+3)^0,w,c
  4650   0015E2  2430               	addwf	(___fladd@a+3)^0,w,c
  4651   0015E4  6E36               	movwf	___fladd@aexp^0,c
  4652   0015E6  AE2F               	btfss	(___fladd@a+2)^0,7,c
  4653   0015E8  EFF8  F00A         	goto	u4111
  4654   0015EC  EFFA  F00A         	goto	u4110
  4655   0015F0                     u4111:
  4656   0015F0  EFFB  F00A         	goto	l5431
  4657   0015F4                     u4110:
  4658   0015F4  8036               	bsf	___fladd@aexp^0,0,c
  4659   0015F6                     l5431:
  4660   0015F6  5036               	movf	___fladd@aexp^0,w,c
  4661   0015F8  B4D8               	btfsc	status,2,c
  4662   0015FA  EF01  F00B         	goto	u4121
  4663   0015FE  EF03  F00B         	goto	u4120
  4664   001602                     u4121:
  4665   001602  EF18  F00B         	goto	l5441
  4666   001606                     u4120:
  4667   001606  2836               	incf	___fladd@aexp^0,w,c
  4668   001608  A4D8               	btfss	status,2,c
  4669   00160A  EF09  F00B         	goto	u4131
  4670   00160E  EF0B  F00B         	goto	u4130
  4671   001612                     u4131:
  4672   001612  EF13  F00B         	goto	l5437
  4673   001616                     u4130:
  4674   001616  0E00               	movlw	0
  4675   001618  6E2D               	movwf	___fladd@a^0,c
  4676   00161A  0E00               	movlw	0
  4677   00161C  6E2E               	movwf	(___fladd@a+1)^0,c
  4678   00161E  0E00               	movlw	0
  4679   001620  6E2F               	movwf	(___fladd@a+2)^0,c
  4680   001622  0E00               	movlw	0
  4681   001624  6E30               	movwf	(___fladd@a+3)^0,c
  4682   001626                     l5437:
  4683   001626  8E2F               	bsf	(___fladd@a+2)^0,7,c
  4684   001628  0E00               	movlw	0
  4685   00162A  6E30               	movwf	(___fladd@a+3)^0,c
  4686   00162C  EF20  F00B         	goto	l5443
  4687   001630                     l5441:
  4688   001630  0E00               	movlw	0
  4689   001632  6E2D               	movwf	___fladd@a^0,c
  4690   001634  0E00               	movlw	0
  4691   001636  6E2E               	movwf	(___fladd@a+1)^0,c
  4692   001638  0E00               	movlw	0
  4693   00163A  6E2F               	movwf	(___fladd@a+2)^0,c
  4694   00163C  0E00               	movlw	0
  4695   00163E  6E30               	movwf	(___fladd@a+3)^0,c
  4696   001640                     l5443:
  4697   001640  5037               	movf	___fladd@bexp^0,w,c
  4698   001642  5C36               	subwf	___fladd@aexp^0,w,c
  4699   001644  B0D8               	btfsc	status,0,c
  4700   001646  EF27  F00B         	goto	u4141
  4701   00164A  EF29  F00B         	goto	u4140
  4702   00164E                     u4141:
  4703   00164E  EF50  F00B         	goto	l5479
  4704   001652                     u4140:
  4705   001652  AC35               	btfss	___fladd@signs^0,6,c
  4706   001654  EF2E  F00B         	goto	u4151
  4707   001658  EF30  F00B         	goto	u4150
  4708   00165C                     u4151:
  4709   00165C  EF32  F00B         	goto	l5449
  4710   001660                     u4150:
  4711   001660  0E80               	movlw	128
  4712   001662  1A35               	xorwf	___fladd@signs^0,f,c
  4713   001664                     l5449:
  4714   001664  C037  F038         	movff	___fladd@bexp,___fladd@grs
  4715   001668  C036  F037         	movff	___fladd@aexp,___fladd@bexp
  4716   00166C  C038  F036         	movff	___fladd@grs,___fladd@aexp
  4717   001670  C029  F038         	movff	___fladd@b,___fladd@grs
  4718   001674  C02D  F029         	movff	___fladd@a,___fladd@b
  4719   001678  C038  F02D         	movff	___fladd@grs,___fladd@a
  4720   00167C  C02A  F038         	movff	___fladd@b+1,___fladd@grs
  4721   001680  C02E  F02A         	movff	___fladd@a+1,___fladd@b+1
  4722   001684  C038  F02E         	movff	___fladd@grs,___fladd@a+1
  4723   001688  C02B  F038         	movff	___fladd@b+2,___fladd@grs
  4724   00168C  C02F  F02B         	movff	___fladd@a+2,___fladd@b+2
  4725   001690  C038  F02F         	movff	___fladd@grs,___fladd@a+2
  4726   001694  C02C  F038         	movff	___fladd@b+3,___fladd@grs
  4727   001698  C030  F02C         	movff	___fladd@a+3,___fladd@b+3
  4728   00169C  C038  F030         	movff	___fladd@grs,___fladd@a+3
  4729   0016A0                     l5479:
  4730   0016A0  0E00               	movlw	0
  4731   0016A2  6E38               	movwf	___fladd@grs^0,c
  4732   0016A4  5037               	movf	___fladd@bexp^0,w,c
  4733   0016A6  C036  F031         	movff	___fladd@aexp,??___fladd
  4734   0016AA  6A32               	clrf	(??___fladd+1)^0,c
  4735   0016AC  5E31               	subwf	??___fladd^0,f,c
  4736   0016AE  0E00               	movlw	0
  4737   0016B0  5A32               	subwfb	(??___fladd+1)^0,f,c
  4738   0016B2  BE32               	btfsc	(??___fladd+1)^0,7,c
  4739   0016B4  EF65  F00B         	goto	u4161
  4740   0016B8  5032               	movf	(??___fladd+1)^0,w,c
  4741   0016BA  E109               	bnz	u4160
  4742   0016BC  0E1A               	movlw	26
  4743   0016BE  5C31               	subwf	??___fladd^0,w,c
  4744   0016C0  A0D8               	btfss	status,0,c
  4745   0016C2  EF65  F00B         	goto	u4161
  4746   0016C6  EF67  F00B         	goto	u4160
  4747   0016CA                     u4161:
  4748   0016CA  EF9E  F00B         	goto	l2144
  4749   0016CE                     u4160:
  4750   0016CE  5029               	movf	___fladd@b^0,w,c
  4751   0016D0  102A               	iorwf	(___fladd@b+1)^0,w,c
  4752   0016D2  102B               	iorwf	(___fladd@b+2)^0,w,c
  4753   0016D4  102C               	iorwf	(___fladd@b+3)^0,w,c
  4754   0016D6  A4D8               	btfss	status,2,c
  4755   0016D8  EF70  F00B         	goto	u4171
  4756   0016DC  EF73  F00B         	goto	u4170
  4757   0016E0                     u4171:
  4758   0016E0  0E01               	movlw	1
  4759   0016E2  EF74  F00B         	goto	u4180
  4760   0016E6                     u4170:
  4761   0016E6  0E00               	movlw	0
  4762   0016E8                     u4180:
  4763   0016E8  6E38               	movwf	___fladd@grs^0,c
  4764   0016EA  0E00               	movlw	0
  4765   0016EC  6E29               	movwf	___fladd@b^0,c
  4766   0016EE  0E00               	movlw	0
  4767   0016F0  6E2A               	movwf	(___fladd@b+1)^0,c
  4768   0016F2  0E00               	movlw	0
  4769   0016F4  6E2B               	movwf	(___fladd@b+2)^0,c
  4770   0016F6  0E00               	movlw	0
  4771   0016F8  6E2C               	movwf	(___fladd@b+3)^0,c
  4772   0016FA  C036  F037         	movff	___fladd@aexp,___fladd@bexp
  4773   0016FE  EFA7  F00B         	goto	l2143
  4774   001702                     l2145:
  4775   001702  A038               	btfss	___fladd@grs^0,0,c
  4776   001704  EF86  F00B         	goto	u4191
  4777   001708  EF88  F00B         	goto	u4190
  4778   00170C                     u4191:
  4779   00170C  EF8E  F00B         	goto	l5491
  4780   001710                     u4190:
  4781   001710  90D8               	bcf	status,0,c
  4782   001712  3038               	rrcf	___fladd@grs^0,w,c
  4783   001714  0901               	iorlw	1
  4784   001716  6E38               	movwf	___fladd@grs^0,c
  4785   001718  EF90  F00B         	goto	l5493
  4786   00171C                     l5491:
  4787   00171C  90D8               	bcf	status,0,c
  4788   00171E  3238               	rrcf	___fladd@grs^0,f,c
  4789   001720                     l5493:
  4790   001720  A029               	btfss	___fladd@b^0,0,c
  4791   001722  EF95  F00B         	goto	u4201
  4792   001726  EF97  F00B         	goto	u4200
  4793   00172A                     u4201:
  4794   00172A  EF98  F00B         	goto	l5497
  4795   00172E                     u4200:
  4796   00172E  8E38               	bsf	___fladd@grs^0,7,c
  4797   001730                     l5497:
  4798   001730  342C               	rlcf	(___fladd@b+3)^0,w,c
  4799   001732  322C               	rrcf	(___fladd@b+3)^0,f,c
  4800   001734  322B               	rrcf	(___fladd@b+2)^0,f,c
  4801   001736  322A               	rrcf	(___fladd@b+1)^0,f,c
  4802   001738  3229               	rrcf	___fladd@b^0,f,c
  4803   00173A  2A37               	incf	___fladd@bexp^0,f,c
  4804   00173C                     l2144:
  4805   00173C  5036               	movf	___fladd@aexp^0,w,c
  4806   00173E  5C37               	subwf	___fladd@bexp^0,w,c
  4807   001740  A0D8               	btfss	status,0,c
  4808   001742  EFA5  F00B         	goto	u4211
  4809   001746  EFA7  F00B         	goto	u4210
  4810   00174A                     u4211:
  4811   00174A  EF81  F00B         	goto	l2145
  4812   00174E                     u4210:
  4813   00174E                     l2143:
  4814   00174E  BC35               	btfsc	___fladd@signs^0,6,c
  4815   001750  EFAC  F00B         	goto	u4221
  4816   001754  EFAE  F00B         	goto	u4220
  4817   001758                     u4221:
  4818   001758  EFEE  F00B         	goto	l5525
  4819   00175C                     u4220:
  4820   00175C  5037               	movf	___fladd@bexp^0,w,c
  4821   00175E  A4D8               	btfss	status,2,c
  4822   001760  EFB4  F00B         	goto	u4231
  4823   001764  EFB6  F00B         	goto	u4230
  4824   001768                     u4231:
  4825   001768  EFC0  F00B         	goto	l5507
  4826   00176C                     u4230:
  4827   00176C  0E00               	movlw	0
  4828   00176E  6E29               	movwf	?___fladd^0,c
  4829   001770  0E00               	movlw	0
  4830   001772  6E2A               	movwf	(?___fladd+1)^0,c
  4831   001774  0E00               	movlw	0
  4832   001776  6E2B               	movwf	(?___fladd+2)^0,c
  4833   001778  0E00               	movlw	0
  4834   00177A  6E2C               	movwf	(?___fladd+3)^0,c
  4835   00177C  EF0F  F00D         	goto	l2152
  4836   001780                     l5507:
  4837   001780  502D               	movf	___fladd@a^0,w,c
  4838   001782  2629               	addwf	___fladd@b^0,f,c
  4839   001784  502E               	movf	(___fladd@a+1)^0,w,c
  4840   001786  222A               	addwfc	(___fladd@b+1)^0,f,c
  4841   001788  502F               	movf	(___fladd@a+2)^0,w,c
  4842   00178A  222B               	addwfc	(___fladd@b+2)^0,f,c
  4843   00178C  5030               	movf	(___fladd@a+3)^0,w,c
  4844   00178E  222C               	addwfc	(___fladd@b+3)^0,f,c
  4845   001790  A02C               	btfss	(___fladd@b+3)^0,0,c
  4846   001792  EFCD  F00B         	goto	u4241
  4847   001796  EFCF  F00B         	goto	u4240
  4848   00179A                     u4241:
  4849   00179A  EF7B  F00C         	goto	l5561
  4850   00179E                     u4240:
  4851   00179E  A038               	btfss	___fladd@grs^0,0,c
  4852   0017A0  EFD4  F00B         	goto	u4251
  4853   0017A4  EFD6  F00B         	goto	u4250
  4854   0017A8                     u4251:
  4855   0017A8  EFDC  F00B         	goto	l5515
  4856   0017AC                     u4250:
  4857   0017AC  90D8               	bcf	status,0,c
  4858   0017AE  3038               	rrcf	___fladd@grs^0,w,c
  4859   0017B0  0901               	iorlw	1
  4860   0017B2  6E38               	movwf	___fladd@grs^0,c
  4861   0017B4  EFDE  F00B         	goto	l5517
  4862   0017B8                     l5515:
  4863   0017B8  90D8               	bcf	status,0,c
  4864   0017BA  3238               	rrcf	___fladd@grs^0,f,c
  4865   0017BC                     l5517:
  4866   0017BC  A029               	btfss	___fladd@b^0,0,c
  4867   0017BE  EFE3  F00B         	goto	u4261
  4868   0017C2  EFE5  F00B         	goto	u4260
  4869   0017C6                     u4261:
  4870   0017C6  EFE6  F00B         	goto	l5521
  4871   0017CA                     u4260:
  4872   0017CA  8E38               	bsf	___fladd@grs^0,7,c
  4873   0017CC                     l5521:
  4874   0017CC  342C               	rlcf	(___fladd@b+3)^0,w,c
  4875   0017CE  322C               	rrcf	(___fladd@b+3)^0,f,c
  4876   0017D0  322B               	rrcf	(___fladd@b+2)^0,f,c
  4877   0017D2  322A               	rrcf	(___fladd@b+1)^0,f,c
  4878   0017D4  3229               	rrcf	___fladd@b^0,f,c
  4879   0017D6  2A37               	incf	___fladd@bexp^0,f,c
  4880   0017D8  EF7B  F00C         	goto	l5561
  4881   0017DC                     l5525:
  4882   0017DC  502D               	movf	___fladd@a^0,w,c
  4883   0017DE  5C29               	subwf	___fladd@b^0,w,c
  4884   0017E0  502E               	movf	(___fladd@a+1)^0,w,c
  4885   0017E2  582A               	subwfb	(___fladd@b+1)^0,w,c
  4886   0017E4  502F               	movf	(___fladd@a+2)^0,w,c
  4887   0017E6  582B               	subwfb	(___fladd@b+2)^0,w,c
  4888   0017E8  502C               	movf	(___fladd@b+3)^0,w,c
  4889   0017EA  0A80               	xorlw	128
  4890   0017EC  6E31               	movwf	??___fladd^0,c
  4891   0017EE  5030               	movf	(___fladd@a+3)^0,w,c
  4892   0017F0  0A80               	xorlw	128
  4893   0017F2  5831               	subwfb	??___fladd^0,w,c
  4894   0017F4  B0D8               	btfsc	status,0,c
  4895   0017F6  EFFF  F00B         	goto	u4271
  4896   0017FA  EF01  F00C         	goto	u4270
  4897   0017FE                     u4271:
  4898   0017FE  EF2C  F00C         	goto	l5535
  4899   001802                     u4270:
  4900   001802  5029               	movf	___fladd@b^0,w,c
  4901   001804  5C2D               	subwf	___fladd@a^0,w,c
  4902   001806  6E31               	movwf	??___fladd^0,c
  4903   001808  502A               	movf	(___fladd@b+1)^0,w,c
  4904   00180A  582E               	subwfb	(___fladd@a+1)^0,w,c
  4905   00180C  6E32               	movwf	(??___fladd+1)^0,c
  4906   00180E  502B               	movf	(___fladd@b+2)^0,w,c
  4907   001810  582F               	subwfb	(___fladd@a+2)^0,w,c
  4908   001812  6E33               	movwf	(??___fladd+2)^0,c
  4909   001814  502C               	movf	(___fladd@b+3)^0,w,c
  4910   001816  5830               	subwfb	(___fladd@a+3)^0,w,c
  4911   001818  6E34               	movwf	(??___fladd+3)^0,c
  4912   00181A  0EFF               	movlw	255
  4913   00181C  2431               	addwf	??___fladd^0,w,c
  4914   00181E  6E29               	movwf	___fladd@b^0,c
  4915   001820  0EFF               	movlw	255
  4916   001822  2032               	addwfc	(??___fladd+1)^0,w,c
  4917   001824  6E2A               	movwf	(___fladd@b+1)^0,c
  4918   001826  0EFF               	movlw	255
  4919   001828  2033               	addwfc	(??___fladd+2)^0,w,c
  4920   00182A  6E2B               	movwf	(___fladd@b+2)^0,c
  4921   00182C  0EFF               	movlw	255
  4922   00182E  2034               	addwfc	(??___fladd+3)^0,w,c
  4923   001830  6E2C               	movwf	(___fladd@b+3)^0,c
  4924   001832  0E80               	movlw	128
  4925   001834  1A35               	xorwf	___fladd@signs^0,f,c
  4926   001836  6C38               	negf	___fladd@grs^0,c
  4927   001838  5038               	movf	___fladd@grs^0,w,c
  4928   00183A  A4D8               	btfss	status,2,c
  4929   00183C  EF22  F00C         	goto	u4281
  4930   001840  EF24  F00C         	goto	u4280
  4931   001844                     u4281:
  4932   001844  EF34  F00C         	goto	l2160
  4933   001848                     u4280:
  4934   001848  0E01               	movlw	1
  4935   00184A  2629               	addwf	___fladd@b^0,f,c
  4936   00184C  0E00               	movlw	0
  4937   00184E  222A               	addwfc	(___fladd@b+1)^0,f,c
  4938   001850  222B               	addwfc	(___fladd@b+2)^0,f,c
  4939   001852  222C               	addwfc	(___fladd@b+3)^0,f,c
  4940   001854  EF34  F00C         	goto	l2160
  4941   001858                     l5535:
  4942   001858  502D               	movf	___fladd@a^0,w,c
  4943   00185A  5E29               	subwf	___fladd@b^0,f,c
  4944   00185C  502E               	movf	(___fladd@a+1)^0,w,c
  4945   00185E  5A2A               	subwfb	(___fladd@b+1)^0,f,c
  4946   001860  502F               	movf	(___fladd@a+2)^0,w,c
  4947   001862  5A2B               	subwfb	(___fladd@b+2)^0,f,c
  4948   001864  5030               	movf	(___fladd@a+3)^0,w,c
  4949   001866  5A2C               	subwfb	(___fladd@b+3)^0,f,c
  4950   001868                     l2160:
  4951   001868  5029               	movf	___fladd@b^0,w,c
  4952   00186A  102A               	iorwf	(___fladd@b+1)^0,w,c
  4953   00186C  102B               	iorwf	(___fladd@b+2)^0,w,c
  4954   00186E  102C               	iorwf	(___fladd@b+3)^0,w,c
  4955   001870  A4D8               	btfss	status,2,c
  4956   001872  EF3D  F00C         	goto	u4291
  4957   001876  EF3F  F00C         	goto	u4290
  4958   00187A                     u4291:
  4959   00187A  EF74  F00C         	goto	l5559
  4960   00187E                     u4290:
  4961   00187E  5038               	movf	___fladd@grs^0,w,c
  4962   001880  A4D8               	btfss	status,2,c
  4963   001882  EF45  F00C         	goto	u4301
  4964   001886  EF47  F00C         	goto	u4300
  4965   00188A                     u4301:
  4966   00188A  EF74  F00C         	goto	l5559
  4967   00188E                     u4300:
  4968   00188E  0E00               	movlw	0
  4969   001890  6E29               	movwf	?___fladd^0,c
  4970   001892  0E00               	movlw	0
  4971   001894  6E2A               	movwf	(?___fladd+1)^0,c
  4972   001896  0E00               	movlw	0
  4973   001898  6E2B               	movwf	(?___fladd+2)^0,c
  4974   00189A  0E00               	movlw	0
  4975   00189C  6E2C               	movwf	(?___fladd+3)^0,c
  4976   00189E  EF0F  F00D         	goto	l2152
  4977   0018A2                     l5543:
  4978   0018A2  90D8               	bcf	status,0,c
  4979   0018A4  3629               	rlcf	___fladd@b^0,f,c
  4980   0018A6  362A               	rlcf	(___fladd@b+1)^0,f,c
  4981   0018A8  362B               	rlcf	(___fladd@b+2)^0,f,c
  4982   0018AA  362C               	rlcf	(___fladd@b+3)^0,f,c
  4983   0018AC  AE38               	btfss	___fladd@grs^0,7,c
  4984   0018AE  EF5B  F00C         	goto	u4311
  4985   0018B2  EF5D  F00C         	goto	u4310
  4986   0018B6                     u4311:
  4987   0018B6  EF5E  F00C         	goto	l5549
  4988   0018BA                     u4310:
  4989   0018BA  8029               	bsf	___fladd@b^0,0,c
  4990   0018BC                     l5549:
  4991   0018BC  A038               	btfss	___fladd@grs^0,0,c
  4992   0018BE  EF63  F00C         	goto	u4321
  4993   0018C2  EF65  F00C         	goto	u4320
  4994   0018C6                     u4321:
  4995   0018C6  EF69  F00C         	goto	l5553
  4996   0018CA                     u4320:
  4997   0018CA  80D8               	bsf	status,0,c
  4998   0018CC  3638               	rlcf	___fladd@grs^0,f,c
  4999   0018CE  EF6B  F00C         	goto	l5555
  5000   0018D2                     l5553:
  5001   0018D2  90D8               	bcf	status,0,c
  5002   0018D4  3638               	rlcf	___fladd@grs^0,f,c
  5003   0018D6                     l5555:
  5004   0018D6  5037               	movf	___fladd@bexp^0,w,c
  5005   0018D8  B4D8               	btfsc	status,2,c
  5006   0018DA  EF71  F00C         	goto	u4331
  5007   0018DE  EF73  F00C         	goto	u4330
  5008   0018E2                     u4331:
  5009   0018E2  EF74  F00C         	goto	l5559
  5010   0018E6                     u4330:
  5011   0018E6  0637               	decf	___fladd@bexp^0,f,c
  5012   0018E8                     l5559:
  5013   0018E8  AE2B               	btfss	(___fladd@b+2)^0,7,c
  5014   0018EA  EF79  F00C         	goto	u4341
  5015   0018EE  EF7B  F00C         	goto	u4340
  5016   0018F2                     u4341:
  5017   0018F2  EF51  F00C         	goto	l5543
  5018   0018F6                     u4340:
  5019   0018F6                     l5561:
  5020   0018F6  0E00               	movlw	0
  5021   0018F8  6E36               	movwf	___fladd@aexp^0,c
  5022   0018FA  AE38               	btfss	___fladd@grs^0,7,c
  5023   0018FC  EF82  F00C         	goto	u4351
  5024   001900  EF84  F00C         	goto	u4350
  5025   001904                     u4351:
  5026   001904  EF9C  F00C         	goto	l2169
  5027   001908                     u4350:
  5028   001908  C038  F031         	movff	___fladd@grs,??___fladd
  5029   00190C  0E7F               	movlw	127
  5030   00190E  1631               	andwf	??___fladd^0,f,c
  5031   001910  B4D8               	btfsc	status,2,c
  5032   001912  EF8D  F00C         	goto	u4361
  5033   001916  EF8F  F00C         	goto	u4360
  5034   00191A                     u4361:
  5035   00191A  EF93  F00C         	goto	l2170
  5036   00191E                     u4360:
  5037   00191E                     l5567:
  5038   00191E  0E01               	movlw	1
  5039   001920  6E36               	movwf	___fladd@aexp^0,c
  5040   001922  EF9C  F00C         	goto	l2169
  5041   001926                     l2170:
  5042   001926  A029               	btfss	___fladd@b^0,0,c
  5043   001928  EF98  F00C         	goto	u4371
  5044   00192C  EF9A  F00C         	goto	u4370
  5045   001930                     u4371:
  5046   001930  EF9C  F00C         	goto	l2169
  5047   001934                     u4370:
  5048   001934  EF8F  F00C         	goto	l5567
  5049   001938                     l2169:
  5050   001938  5036               	movf	___fladd@aexp^0,w,c
  5051   00193A  B4D8               	btfsc	status,2,c
  5052   00193C  EFA2  F00C         	goto	u4381
  5053   001940  EFA4  F00C         	goto	u4380
  5054   001944                     u4381:
  5055   001944  EFCF  F00C         	goto	l5579
  5056   001948                     u4380:
  5057   001948  0E01               	movlw	1
  5058   00194A  2629               	addwf	___fladd@b^0,f,c
  5059   00194C  0E00               	movlw	0
  5060   00194E  222A               	addwfc	(___fladd@b+1)^0,f,c
  5061   001950  222B               	addwfc	(___fladd@b+2)^0,f,c
  5062   001952  222C               	addwfc	(___fladd@b+3)^0,f,c
  5063   001954  A02C               	btfss	(___fladd@b+3)^0,0,c
  5064   001956  EFAF  F00C         	goto	u4391
  5065   00195A  EFB1  F00C         	goto	u4390
  5066   00195E                     u4391:
  5067   00195E  EFCF  F00C         	goto	l5579
  5068   001962                     u4390:
  5069   001962  C029  F031         	movff	___fladd@b,??___fladd
  5070   001966  C02A  F032         	movff	___fladd@b+1,??___fladd+1
  5071   00196A  C02B  F033         	movff	___fladd@b+2,??___fladd+2
  5072   00196E  C02C  F034         	movff	___fladd@b+3,??___fladd+3
  5073   001972  3434               	rlcf	(??___fladd+3)^0,w,c
  5074   001974  3234               	rrcf	(??___fladd+3)^0,f,c
  5075   001976  3233               	rrcf	(??___fladd+2)^0,f,c
  5076   001978  3232               	rrcf	(??___fladd+1)^0,f,c
  5077   00197A  3231               	rrcf	??___fladd^0,f,c
  5078   00197C  C031  F029         	movff	??___fladd,___fladd@b
  5079   001980  C032  F02A         	movff	??___fladd+1,___fladd@b+1
  5080   001984  C033  F02B         	movff	??___fladd+2,___fladd@b+2
  5081   001988  C034  F02C         	movff	??___fladd+3,___fladd@b+3
  5082   00198C  2837               	incf	___fladd@bexp^0,w,c
  5083   00198E  B4D8               	btfsc	status,2,c
  5084   001990  EFCC  F00C         	goto	u4401
  5085   001994  EFCE  F00C         	goto	u4400
  5086   001998                     u4401:
  5087   001998  EFCF  F00C         	goto	l5579
  5088   00199C                     u4400:
  5089   00199C  2A37               	incf	___fladd@bexp^0,f,c
  5090   00199E                     l5579:
  5091   00199E  2837               	incf	___fladd@bexp^0,w,c
  5092   0019A0  B4D8               	btfsc	status,2,c
  5093   0019A2  EFD5  F00C         	goto	u4411
  5094   0019A6  EFD7  F00C         	goto	u4410
  5095   0019AA                     u4411:
  5096   0019AA  EFDF  F00C         	goto	l5583
  5097   0019AE                     u4410:
  5098   0019AE  5037               	movf	___fladd@bexp^0,w,c
  5099   0019B0  A4D8               	btfss	status,2,c
  5100   0019B2  EFDD  F00C         	goto	u4421
  5101   0019B6  EFDF  F00C         	goto	u4420
  5102   0019BA                     u4421:
  5103   0019BA  EFF1  F00C         	goto	l5587
  5104   0019BE                     u4420:
  5105   0019BE                     l5583:
  5106   0019BE  0E00               	movlw	0
  5107   0019C0  6E29               	movwf	___fladd@b^0,c
  5108   0019C2  0E00               	movlw	0
  5109   0019C4  6E2A               	movwf	(___fladd@b+1)^0,c
  5110   0019C6  0E00               	movlw	0
  5111   0019C8  6E2B               	movwf	(___fladd@b+2)^0,c
  5112   0019CA  0E00               	movlw	0
  5113   0019CC  6E2C               	movwf	(___fladd@b+3)^0,c
  5114   0019CE  5037               	movf	___fladd@bexp^0,w,c
  5115   0019D0  A4D8               	btfss	status,2,c
  5116   0019D2  EFED  F00C         	goto	u4431
  5117   0019D6  EFEF  F00C         	goto	u4430
  5118   0019DA                     u4431:
  5119   0019DA  EFF1  F00C         	goto	l5587
  5120   0019DE                     u4430:
  5121   0019DE  0E00               	movlw	0
  5122   0019E0  6E35               	movwf	___fladd@signs^0,c
  5123   0019E2                     l5587:
  5124   0019E2  A037               	btfss	___fladd@bexp^0,0,c
  5125   0019E4  EFF6  F00C         	goto	u4441
  5126   0019E8  EFF8  F00C         	goto	u4440
  5127   0019EC                     u4441:
  5128   0019EC  EFFB  F00C         	goto	l5591
  5129   0019F0                     u4440:
  5130   0019F0  8E2B               	bsf	(___fladd@b+2)^0,7,c
  5131   0019F2  EFFC  F00C         	goto	l5593
  5132   0019F6                     l5591:
  5133   0019F6  9E2B               	bcf	(___fladd@b+2)^0,7,c
  5134   0019F8                     l5593:
  5135   0019F8  90D8               	bcf	status,0,c
  5136   0019FA  3037               	rrcf	___fladd@bexp^0,w,c
  5137   0019FC  6E2C               	movwf	(___fladd@b+3)^0,c
  5138   0019FE  AE35               	btfss	___fladd@signs^0,7,c
  5139   001A00  EF04  F00D         	goto	u4451
  5140   001A04  EF06  F00D         	goto	u4450
  5141   001A08                     u4451:
  5142   001A08  EF07  F00D         	goto	l5599
  5143   001A0C                     u4450:
  5144   001A0C  8E2C               	bsf	(___fladd@b+3)^0,7,c
  5145   001A0E                     l5599:
  5146   001A0E  C029  F029         	movff	___fladd@b,?___fladd
  5147   001A12  C02A  F02A         	movff	___fladd@b+1,?___fladd+1
  5148   001A16  C02B  F02B         	movff	___fladd@b+2,?___fladd+2
  5149   001A1A  C02C  F02C         	movff	___fladd@b+3,?___fladd+3
  5150   001A1E                     l2152:
  5151   001A1E  0012               	return		;funcret
  5152   001A20                     __end_of___fladd:
  5153                           	callstack 0
  5154                           
  5155 ;; *************** function _EUSART_ASYNC_TX_Init *****************
  5156 ;; Defined at:
  5157 ;;		line 142 in file "mcal_layer/usart/hal_usart.c"
  5158 ;; Parameters:    Size  Location     Type
  5159 ;;  _eusart         2    1[COMRAM] PTR const struct .
  5160 ;;		 -> x(16), 
  5161 ;; Auto vars:     Size  Location     Type
  5162 ;;		None
  5163 ;; Return value:  Size  Location     Type
  5164 ;;                  1    wreg      void 
  5165 ;; Registers used:
  5166 ;;		wreg, fsr2l, fsr2h, status,2, status,0
  5167 ;; Tracked objects:
  5168 ;;		On entry : 0/0
  5169 ;;		On exit  : 0/0
  5170 ;;		Unchanged: 0/0
  5171 ;; Data sizes:     COMRAM   BANK0   BANK1   BANK2   BANK3   BANK4   BANK5   BANK6   BANK7   BANK8   BANK9  BANK10  BANK1
      +1  BANK12  BANK13  BANK14  BANK15
  5172 ;;      Params:         2       0       0       0       0       0       0       0       0       0       0       0       
      +0       0       0       0       0
  5173 ;;      Locals:         0       0       0       0       0       0       0       0       0       0       0       0       
      +0       0       0       0       0
  5174 ;;      Temps:          0       0       0       0       0       0       0       0       0       0       0       0       
      +0       0       0       0       0
  5175 ;;      Totals:         2       0       0       0       0       0       0       0       0       0       0       0       
      +0       0       0       0       0
  5176 ;;Total ram usage:        2 bytes
  5177 ;; Hardware stack levels used: 1
  5178 ;; Hardware stack levels required when called: 2
  5179 ;; This function calls:
  5180 ;;		Nothing
  5181 ;; This function is called by:
  5182 ;;		_EUSART_ASYNC_Init
  5183 ;; This function uses a non-reentrant model
  5184 ;;
  5185                           
  5186                           	psect	text20
  5187   002D2C                     __ptext20:
  5188                           	callstack 0
  5189   002D2C                     _EUSART_ASYNC_TX_Init:
  5190                           	callstack 26
  5191   002D2C                     
  5192                           ;mcal_layer/usart/hal_usart.c: 143:     if(1 == _eusart->usart_tx_cfg.usart_tx_enable){
  5193   002D2C  EE20 F004          	lfsr	2,4
  5194   002D30  5002               	movf	EUSART_ASYNC_TX_Init@_eusart^0,w,c
  5195   002D32  26D9               	addwf	fsr2l,f,c
  5196   002D34  5003               	movf	(EUSART_ASYNC_TX_Init@_eusart+1)^0,w,c
  5197   002D36  22DA               	addwfc	fsr2h,f,c
  5198   002D38  A0DF               	btfss	indf2,0,c
  5199   002D3A  EFA1  F016         	goto	u4881
  5200   002D3E  EFA3  F016         	goto	u4880
  5201   002D42                     u4881:
  5202   002D42  EFEF  F016         	goto	l1521
  5203   002D46                     u4880:
  5204   002D46                     
  5205                           ;mcal_layer/usart/hal_usart.c: 144:         TXSTAbits.TXEN = 1;
  5206   002D46  8AAC               	bsf	172,5,c	;volatile
  5207   002D48                     
  5208                           ;mcal_layer/usart/hal_usart.c: 145:         EUSART_TxInterruptHandler = _eusart->EUSART_
      +                          TxDefaultInterruptHandler;
  5209   002D48  EE20 F008          	lfsr	2,8
  5210   002D4C  5002               	movf	EUSART_ASYNC_TX_Init@_eusart^0,w,c
  5211   002D4E  26D9               	addwf	fsr2l,f,c
  5212   002D50  5003               	movf	(EUSART_ASYNC_TX_Init@_eusart+1)^0,w,c
  5213   002D52  22DA               	addwfc	fsr2h,f,c
  5214   002D54  CFDE F0C8          	movff	postinc2,_EUSART_TxInterruptHandler
  5215   002D58  CFDD F0C9          	movff	postdec2,_EUSART_TxInterruptHandler+1
  5216                           
  5217                           ;mcal_layer/usart/hal_usart.c: 147:         if(1 == _eusart->usart_tx_cfg.usart_tx_inter
      +                          rupt_enable){
  5218   002D5C  EE20 F004          	lfsr	2,4
  5219   002D60  5002               	movf	EUSART_ASYNC_TX_Init@_eusart^0,w,c
  5220   002D62  26D9               	addwf	fsr2l,f,c
  5221   002D64  5003               	movf	(EUSART_ASYNC_TX_Init@_eusart+1)^0,w,c
  5222   002D66  22DA               	addwfc	fsr2h,f,c
  5223   002D68  A2DF               	btfss	indf2,1,c
  5224   002D6A  EFB9  F016         	goto	u4891
  5225   002D6E  EFBB  F016         	goto	u4890
  5226   002D72                     u4891:
  5227   002D72  EFC1  F016         	goto	l5887
  5228   002D76                     u4890:
  5229   002D76                     
  5230                           ;mcal_layer/usart/hal_usart.c: 148:             PIE1bits.TXIE = 1;
  5231   002D76  889D               	bsf	157,4,c	;volatile
  5232                           
  5233                           ;mcal_layer/usart/hal_usart.c: 151:             (PIE1bits.TXIE = 1);
  5234   002D78  889D               	bsf	157,4,c	;volatile
  5235                           
  5236                           ;mcal_layer/usart/hal_usart.c: 167:             (INTCONbits.GIE = 1);
  5237   002D7A  8EF2               	bsf	242,7,c	;volatile
  5238                           
  5239                           ;mcal_layer/usart/hal_usart.c: 168:             (INTCONbits.PEIE = 1);
  5240   002D7C  8CF2               	bsf	242,6,c	;volatile
  5241                           
  5242                           ;mcal_layer/usart/hal_usart.c: 171:         }
  5243   002D7E  EFCF  F016         	goto	l5891
  5244   002D82                     l5887:
  5245   002D82  EE20 F004          	lfsr	2,4
  5246   002D86  5002               	movf	EUSART_ASYNC_TX_Init@_eusart^0,w,c
  5247   002D88  26D9               	addwf	fsr2l,f,c
  5248   002D8A  5003               	movf	(EUSART_ASYNC_TX_Init@_eusart+1)^0,w,c
  5249   002D8C  22DA               	addwfc	fsr2h,f,c
  5250   002D8E  B2DF               	btfsc	indf2,1,c
  5251   002D90  EFCC  F016         	goto	u4901
  5252   002D94  EFCE  F016         	goto	u4900
  5253   002D98                     u4901:
  5254   002D98  EFCF  F016         	goto	l5891
  5255   002D9C                     u4900:
  5256   002D9C                     
  5257                           ;mcal_layer/usart/hal_usart.c: 173:             PIE1bits.TXIE = 0;
  5258   002D9C  989D               	bcf	157,4,c	;volatile
  5259   002D9E                     l5891:
  5260                           
  5261                           ;mcal_layer/usart/hal_usart.c: 178:         if(1 == _eusart->usart_tx_cfg.usart_tx_9bit_
      +                          enable){
  5262   002D9E  EE20 F004          	lfsr	2,4
  5263   002DA2  5002               	movf	EUSART_ASYNC_TX_Init@_eusart^0,w,c
  5264   002DA4  26D9               	addwf	fsr2l,f,c
  5265   002DA6  5003               	movf	(EUSART_ASYNC_TX_Init@_eusart+1)^0,w,c
  5266   002DA8  22DA               	addwfc	fsr2h,f,c
  5267   002DAA  A4DF               	btfss	indf2,2,c
  5268   002DAC  EFDA  F016         	goto	u4911
  5269   002DB0  EFDC  F016         	goto	u4910
  5270   002DB4                     u4911:
  5271   002DB4  EFDF  F016         	goto	l5895
  5272   002DB8                     u4910:
  5273   002DB8                     
  5274                           ;mcal_layer/usart/hal_usart.c: 179:             TXSTAbits.TX9 = 1;
  5275   002DB8  8CAC               	bsf	172,6,c	;volatile
  5276                           
  5277                           ;mcal_layer/usart/hal_usart.c: 180:         }
  5278   002DBA  EFEF  F016         	goto	l1521
  5279   002DBE                     l5895:
  5280   002DBE  EE20 F004          	lfsr	2,4
  5281   002DC2  5002               	movf	EUSART_ASYNC_TX_Init@_eusart^0,w,c
  5282   002DC4  26D9               	addwf	fsr2l,f,c
  5283   002DC6  5003               	movf	(EUSART_ASYNC_TX_Init@_eusart+1)^0,w,c
  5284   002DC8  22DA               	addwfc	fsr2h,f,c
  5285   002DCA  B4DF               	btfsc	indf2,2,c
  5286   002DCC  EFEA  F016         	goto	u4921
  5287   002DD0  EFEC  F016         	goto	u4920
  5288   002DD4                     u4921:
  5289   002DD4  EFEF  F016         	goto	l1517
  5290   002DD8                     u4920:
  5291   002DD8                     
  5292                           ;mcal_layer/usart/hal_usart.c: 182:             TXSTAbits.TX9 = 0;
  5293   002DD8  9CAC               	bcf	172,6,c	;volatile
  5294                           
  5295                           ;mcal_layer/usart/hal_usart.c: 183:         }
  5296   002DDA  EFEF  F016         	goto	l1521
  5297   002DDE                     l1517:
  5298   002DDE                     l1521:
  5299   002DDE  0012               	return		;funcret
  5300   002DE0                     __end_of_EUSART_ASYNC_TX_Init:
  5301                           	callstack 0
  5302                           
  5303 ;; *************** function _EUSART_ASYNC_RX_Init *****************
  5304 ;; Defined at:
  5305 ;;		line 189 in file "mcal_layer/usart/hal_usart.c"
  5306 ;; Parameters:    Size  Location     Type
  5307 ;;  _eusart         2    1[COMRAM] PTR const struct .
  5308 ;;		 -> x(16), 
  5309 ;; Auto vars:     Size  Location     Type
  5310 ;;		None
  5311 ;; Return value:  Size  Location     Type
  5312 ;;                  1    wreg      void 
  5313 ;; Registers used:
  5314 ;;		wreg, fsr2l, fsr2h, status,2, status,0
  5315 ;; Tracked objects:
  5316 ;;		On entry : 0/0
  5317 ;;		On exit  : 0/0
  5318 ;;		Unchanged: 0/0
  5319 ;; Data sizes:     COMRAM   BANK0   BANK1   BANK2   BANK3   BANK4   BANK5   BANK6   BANK7   BANK8   BANK9  BANK10  BANK1
      +1  BANK12  BANK13  BANK14  BANK15
  5320 ;;      Params:         2       0       0       0       0       0       0       0       0       0       0       0       
      +0       0       0       0       0
  5321 ;;      Locals:         0       0       0       0       0       0       0       0       0       0       0       0       
      +0       0       0       0       0
  5322 ;;      Temps:          0       0       0       0       0       0       0       0       0       0       0       0       
      +0       0       0       0       0
  5323 ;;      Totals:         2       0       0       0       0       0       0       0       0       0       0       0       
      +0       0       0       0       0
  5324 ;;Total ram usage:        2 bytes
  5325 ;; Hardware stack levels used: 1
  5326 ;; Hardware stack levels required when called: 2
  5327 ;; This function calls:
  5328 ;;		Nothing
  5329 ;; This function is called by:
  5330 ;;		_EUSART_ASYNC_Init
  5331 ;; This function uses a non-reentrant model
  5332 ;;
  5333                           
  5334                           	psect	text21
  5335   002C50                     __ptext21:
  5336                           	callstack 0
  5337   002C50                     _EUSART_ASYNC_RX_Init:
  5338                           	callstack 26
  5339   002C50                     
  5340                           ;mcal_layer/usart/hal_usart.c: 190:     if(1 == _eusart->usart_rx_cfg.usart_rx_enable){
  5341   002C50  EE20 F006          	lfsr	2,6
  5342   002C54  5002               	movf	EUSART_ASYNC_RX_Init@_eusart^0,w,c
  5343   002C56  26D9               	addwf	fsr2l,f,c
  5344   002C58  5003               	movf	(EUSART_ASYNC_RX_Init@_eusart+1)^0,w,c
  5345   002C5A  22DA               	addwfc	fsr2h,f,c
  5346   002C5C  A0DF               	btfss	indf2,0,c
  5347   002C5E  EF33  F016         	goto	u4931
  5348   002C62  EF35  F016         	goto	u4930
  5349   002C66                     u4931:
  5350   002C66  EF95  F016         	goto	l1534
  5351   002C6A                     u4930:
  5352   002C6A                     
  5353                           ;mcal_layer/usart/hal_usart.c: 191:         RCSTAbits.CREN = 1;
  5354   002C6A  88AB               	bsf	171,4,c	;volatile
  5355   002C6C                     
  5356                           ;mcal_layer/usart/hal_usart.c: 192:         EUSART_RxInterruptHandler = _eusart->EUSART_
      +                          RxDefaultInterruptHandler;
  5357   002C6C  EE20 F00A          	lfsr	2,10
  5358   002C70  5002               	movf	EUSART_ASYNC_RX_Init@_eusart^0,w,c
  5359   002C72  26D9               	addwf	fsr2l,f,c
  5360   002C74  5003               	movf	(EUSART_ASYNC_RX_Init@_eusart+1)^0,w,c
  5361   002C76  22DA               	addwfc	fsr2h,f,c
  5362   002C78  CFDE F0C6          	movff	postinc2,_EUSART_RxInterruptHandler
  5363   002C7C  CFDD F0C7          	movff	postdec2,_EUSART_RxInterruptHandler+1
  5364                           
  5365                           ;mcal_layer/usart/hal_usart.c: 193:         EUSART_FramingErrorHandler = _eusart->EUSART
      +                          _FramingErrorHandler;
  5366   002C80  EE20 F00C          	lfsr	2,12
  5367   002C84  5002               	movf	EUSART_ASYNC_RX_Init@_eusart^0,w,c
  5368   002C86  26D9               	addwf	fsr2l,f,c
  5369   002C88  5003               	movf	(EUSART_ASYNC_RX_Init@_eusart+1)^0,w,c
  5370   002C8A  22DA               	addwfc	fsr2h,f,c
  5371   002C8C  CFDE F0C4          	movff	postinc2,_EUSART_FramingErrorHandler
  5372   002C90  CFDD F0C5          	movff	postdec2,_EUSART_FramingErrorHandler+1
  5373                           
  5374                           ;mcal_layer/usart/hal_usart.c: 194:         EUSART_OverrunErrorHandler = _eusart->EUSART
      +                          _OverrunErrorHandler;
  5375   002C94  EE20 F00E          	lfsr	2,14
  5376   002C98  5002               	movf	EUSART_ASYNC_RX_Init@_eusart^0,w,c
  5377   002C9A  26D9               	addwf	fsr2l,f,c
  5378   002C9C  5003               	movf	(EUSART_ASYNC_RX_Init@_eusart+1)^0,w,c
  5379   002C9E  22DA               	addwfc	fsr2h,f,c
  5380   002CA0  CFDE F0C2          	movff	postinc2,_EUSART_OverrunErrorHandler
  5381   002CA4  CFDD F0C3          	movff	postdec2,_EUSART_OverrunErrorHandler+1
  5382                           
  5383                           ;mcal_layer/usart/hal_usart.c: 196:         if(1 == _eusart->usart_rx_cfg.usart_rx_inter
      +                          rupt_enable){
  5384   002CA8  EE20 F006          	lfsr	2,6
  5385   002CAC  5002               	movf	EUSART_ASYNC_RX_Init@_eusart^0,w,c
  5386   002CAE  26D9               	addwf	fsr2l,f,c
  5387   002CB0  5003               	movf	(EUSART_ASYNC_RX_Init@_eusart+1)^0,w,c
  5388   002CB2  22DA               	addwfc	fsr2h,f,c
  5389   002CB4  A2DF               	btfss	indf2,1,c
  5390   002CB6  EF5F  F016         	goto	u4941
  5391   002CBA  EF61  F016         	goto	u4940
  5392   002CBE                     u4941:
  5393   002CBE  EF67  F016         	goto	l5907
  5394   002CC2                     u4940:
  5395   002CC2                     
  5396                           ;mcal_layer/usart/hal_usart.c: 197:             PIE1bits.RCIE = 1;
  5397   002CC2  8A9D               	bsf	157,5,c	;volatile
  5398                           
  5399                           ;mcal_layer/usart/hal_usart.c: 200:             (PIE1bits.RCIE = 1);
  5400   002CC4  8A9D               	bsf	157,5,c	;volatile
  5401                           
  5402                           ;mcal_layer/usart/hal_usart.c: 216:             (INTCONbits.GIE = 1);
  5403   002CC6  8EF2               	bsf	242,7,c	;volatile
  5404                           
  5405                           ;mcal_layer/usart/hal_usart.c: 217:             (INTCONbits.PEIE = 1);
  5406   002CC8  8CF2               	bsf	242,6,c	;volatile
  5407                           
  5408                           ;mcal_layer/usart/hal_usart.c: 220:         }
  5409   002CCA  EF75  F016         	goto	l5911
  5410   002CCE                     l5907:
  5411   002CCE  EE20 F006          	lfsr	2,6
  5412   002CD2  5002               	movf	EUSART_ASYNC_RX_Init@_eusart^0,w,c
  5413   002CD4  26D9               	addwf	fsr2l,f,c
  5414   002CD6  5003               	movf	(EUSART_ASYNC_RX_Init@_eusart+1)^0,w,c
  5415   002CD8  22DA               	addwfc	fsr2h,f,c
  5416   002CDA  B2DF               	btfsc	indf2,1,c
  5417   002CDC  EF72  F016         	goto	u4951
  5418   002CE0  EF74  F016         	goto	u4950
  5419   002CE4                     u4951:
  5420   002CE4  EF75  F016         	goto	l5911
  5421   002CE8                     u4950:
  5422   002CE8                     
  5423                           ;mcal_layer/usart/hal_usart.c: 222:             PIE1bits.RCIE = 0;
  5424   002CE8  9A9D               	bcf	157,5,c	;volatile
  5425   002CEA                     l5911:
  5426                           
  5427                           ;mcal_layer/usart/hal_usart.c: 227:         if(1 == _eusart->usart_rx_cfg.usart_rx_9bit_
      +                          enable){
  5428   002CEA  EE20 F006          	lfsr	2,6
  5429   002CEE  5002               	movf	EUSART_ASYNC_RX_Init@_eusart^0,w,c
  5430   002CF0  26D9               	addwf	fsr2l,f,c
  5431   002CF2  5003               	movf	(EUSART_ASYNC_RX_Init@_eusart+1)^0,w,c
  5432   002CF4  22DA               	addwfc	fsr2h,f,c
  5433   002CF6  A4DF               	btfss	indf2,2,c
  5434   002CF8  EF80  F016         	goto	u4961
  5435   002CFC  EF82  F016         	goto	u4960
  5436   002D00                     u4961:
  5437   002D00  EF85  F016         	goto	l5915
  5438   002D04                     u4960:
  5439   002D04                     
  5440                           ;mcal_layer/usart/hal_usart.c: 228:             RCSTAbits.RX9 = 1;
  5441   002D04  8CAB               	bsf	171,6,c	;volatile
  5442                           
  5443                           ;mcal_layer/usart/hal_usart.c: 229:         }
  5444   002D06  EF95  F016         	goto	l1534
  5445   002D0A                     l5915:
  5446   002D0A  EE20 F006          	lfsr	2,6
  5447   002D0E  5002               	movf	EUSART_ASYNC_RX_Init@_eusart^0,w,c
  5448   002D10  26D9               	addwf	fsr2l,f,c
  5449   002D12  5003               	movf	(EUSART_ASYNC_RX_Init@_eusart+1)^0,w,c
  5450   002D14  22DA               	addwfc	fsr2h,f,c
  5451   002D16  B4DF               	btfsc	indf2,2,c
  5452   002D18  EF90  F016         	goto	u4971
  5453   002D1C  EF92  F016         	goto	u4970
  5454   002D20                     u4971:
  5455   002D20  EF95  F016         	goto	l1530
  5456   002D24                     u4970:
  5457   002D24                     
  5458                           ;mcal_layer/usart/hal_usart.c: 231:             RCSTAbits.RX9 = 0;
  5459   002D24  9CAB               	bcf	171,6,c	;volatile
  5460                           
  5461                           ;mcal_layer/usart/hal_usart.c: 232:         }
  5462   002D26  EF95  F016         	goto	l1534
  5463   002D2A                     l1530:
  5464   002D2A                     l1534:
  5465   002D2A  0012               	return		;funcret
  5466   002D2C                     __end_of_EUSART_ASYNC_RX_Init:
  5467                           	callstack 0
  5468                           
  5469 ;; *************** function _EUSART_ASYNC_WriteStringBlocking *****************
  5470 ;; Defined at:
  5471 ;;		line 82 in file "mcal_layer/usart/hal_usart.c"
  5472 ;; Parameters:    Size  Location     Type
  5473 ;;  _data           2    2[COMRAM] PTR unsigned char 
  5474 ;;		 -> STR_9(13), STR_8(11), STR_7(13), STR_6(11), 
  5475 ;;		 -> STR_5(12), STR_4(10), STR_3(12), STR_2(10), 
  5476 ;;  str_len         2    4[COMRAM] unsigned short 
  5477 ;; Auto vars:     Size  Location     Type
  5478 ;;  char_counter    2    9[COMRAM] unsigned short 
  5479 ;;  ret             1    8[COMRAM] unsigned char 
  5480 ;; Return value:  Size  Location     Type
  5481 ;;                  1    wreg      unsigned char 
  5482 ;; Registers used:
  5483 ;;		wreg, status,2, status,0, tblptrl, tblptrh, tblptru, cstack
  5484 ;; Tracked objects:
  5485 ;;		On entry : 0/0
  5486 ;;		On exit  : 0/0
  5487 ;;		Unchanged: 0/0
  5488 ;; Data sizes:     COMRAM   BANK0   BANK1   BANK2   BANK3   BANK4   BANK5   BANK6   BANK7   BANK8   BANK9  BANK10  BANK1
      +1  BANK12  BANK13  BANK14  BANK15
  5489 ;;      Params:         4       0       0       0       0       0       0       0       0       0       0       0       
      +0       0       0       0       0
  5490 ;;      Locals:         3       0       0       0       0       0       0       0       0       0       0       0       
      +0       0       0       0       0
  5491 ;;      Temps:          2       0       0       0       0       0       0       0       0       0       0       0       
      +0       0       0       0       0
  5492 ;;      Totals:         9       0       0       0       0       0       0       0       0       0       0       0       
      +0       0       0       0       0
  5493 ;;Total ram usage:        9 bytes
  5494 ;; Hardware stack levels used: 1
  5495 ;; Hardware stack levels required when called: 3
  5496 ;; This function calls:
  5497 ;;		_EUSART_ASYNC_WriteByteBlocking
  5498 ;; This function is called by:
  5499 ;;		_main
  5500 ;; This function uses a non-reentrant model
  5501 ;;
  5502                           
  5503                           	psect	text22
  5504   003016                     __ptext22:
  5505                           	callstack 0
  5506   003016                     _EUSART_ASYNC_WriteStringBlocking:
  5507                           	callstack 27
  5508   003016                     
  5509                           ;mcal_layer/usart/hal_usart.c: 83:     Std_returntype ret = ( Std_returntype)0x01;
  5510   003016  0E01               	movlw	1
  5511   003018  6E09               	movwf	EUSART_ASYNC_WriteStringBlocking@ret^0,c
  5512                           
  5513                           ;mcal_layer/usart/hal_usart.c: 84:     uint16 char_counter = 0;
  5514   00301A  0E00               	movlw	0
  5515   00301C  6E0B               	movwf	(EUSART_ASYNC_WriteStringBlocking@char_counter+1)^0,c
  5516   00301E  0E00               	movlw	0
  5517   003020  6E0A               	movwf	EUSART_ASYNC_WriteStringBlocking@char_counter^0,c
  5518                           
  5519                           ;mcal_layer/usart/hal_usart.c: 85:     for(char_counter=0; char_counter < str_len; char_
      +                          counter++){
  5520   003022  0E00               	movlw	0
  5521   003024  6E0B               	movwf	(EUSART_ASYNC_WriteStringBlocking@char_counter+1)^0,c
  5522   003026  0E00               	movlw	0
  5523   003028  6E0A               	movwf	EUSART_ASYNC_WriteStringBlocking@char_counter^0,c
  5524   00302A  EF29  F018         	goto	l6409
  5525   00302E                     l6405:
  5526                           
  5527                           ;mcal_layer/usart/hal_usart.c: 86:         ret = EUSART_ASYNC_WriteByteBlocking(_data[ch
      +                          ar_counter]);
  5528   00302E  500A               	movf	EUSART_ASYNC_WriteStringBlocking@char_counter^0,w,c
  5529   003030  2403               	addwf	EUSART_ASYNC_WriteStringBlocking@_data^0,w,c
  5530   003032  6E07               	movwf	??_EUSART_ASYNC_WriteStringBlocking^0,c
  5531   003034  500B               	movf	(EUSART_ASYNC_WriteStringBlocking@char_counter+1)^0,w,c
  5532   003036  2004               	addwfc	(EUSART_ASYNC_WriteStringBlocking@_data+1)^0,w,c
  5533   003038  6E08               	movwf	(??_EUSART_ASYNC_WriteStringBlocking+1)^0,c
  5534   00303A  C007  FFF6         	movff	??_EUSART_ASYNC_WriteStringBlocking,tblptrl
  5535   00303E  C008  FFF7         	movff	??_EUSART_ASYNC_WriteStringBlocking+1,tblptrh
  5536   003042                     	if	1	;Program memory is < 0x10000, tblptru is always zero
  5537   003042  6AF8               	clrf	tblptru,c
  5538   003044                     	endif
  5539   003044                     	if	0	;tblptru may be non-zero
  5540   003044                     	endif
  5541   003044  0008               	tblrd		*
  5542   003046  50F5               	movf	tablat,w,c
  5543   003048  ECF7  F018         	call	_EUSART_ASYNC_WriteByteBlocking
  5544   00304C  6E09               	movwf	EUSART_ASYNC_WriteStringBlocking@ret^0,c
  5545   00304E                     
  5546                           ;mcal_layer/usart/hal_usart.c: 87:     }
  5547   00304E  4A0A               	infsnz	EUSART_ASYNC_WriteStringBlocking@char_counter^0,f,c
  5548   003050  2A0B               	incf	(EUSART_ASYNC_WriteStringBlocking@char_counter+1)^0,f,c
  5549   003052                     l6409:
  5550   003052  5005               	movf	EUSART_ASYNC_WriteStringBlocking@str_len^0,w,c
  5551   003054  5C0A               	subwf	EUSART_ASYNC_WriteStringBlocking@char_counter^0,w,c
  5552   003056  5006               	movf	(EUSART_ASYNC_WriteStringBlocking@str_len+1)^0,w,c
  5553   003058  580B               	subwfb	(EUSART_ASYNC_WriteStringBlocking@char_counter+1)^0,w,c
  5554   00305A  A0D8               	btfss	status,0,c
  5555   00305C  EF32  F018         	goto	u5361
  5556   003060  EF34  F018         	goto	u5360
  5557   003064                     u5361:
  5558   003064  EF17  F018         	goto	l6405
  5559   003068                     u5360:
  5560   003068                     
  5561                           ;mcal_layer/usart/hal_usart.c: 88:     return ret;
  5562   003068  5009               	movf	EUSART_ASYNC_WriteStringBlocking@ret^0,w,c
  5563   00306A  0012               	return		;funcret
  5564   00306C                     __end_of_EUSART_ASYNC_WriteStringBlocking:
  5565                           	callstack 0
  5566                           
  5567 ;; *************** function _EUSART_ASYNC_WriteByteBlocking *****************
  5568 ;; Defined at:
  5569 ;;		line 72 in file "mcal_layer/usart/hal_usart.c"
  5570 ;; Parameters:    Size  Location     Type
  5571 ;;  _data           1    wreg     unsigned char 
  5572 ;; Auto vars:     Size  Location     Type
  5573 ;;  _data           1    1[COMRAM] unsigned char 
  5574 ;;  ret             1    0        unsigned char 
  5575 ;; Return value:  Size  Location     Type
  5576 ;;                  1    wreg      unsigned char 
  5577 ;; Registers used:
  5578 ;;		wreg, status,2
  5579 ;; Tracked objects:
  5580 ;;		On entry : 0/0
  5581 ;;		On exit  : 0/0
  5582 ;;		Unchanged: 0/0
  5583 ;; Data sizes:     COMRAM   BANK0   BANK1   BANK2   BANK3   BANK4   BANK5   BANK6   BANK7   BANK8   BANK9  BANK10  BANK1
      +1  BANK12  BANK13  BANK14  BANK15
  5584 ;;      Params:         0       0       0       0       0       0       0       0       0       0       0       0       
      +0       0       0       0       0
  5585 ;;      Locals:         1       0       0       0       0       0       0       0       0       0       0       0       
      +0       0       0       0       0
  5586 ;;      Temps:          0       0       0       0       0       0       0       0       0       0       0       0       
      +0       0       0       0       0
  5587 ;;      Totals:         1       0       0       0       0       0       0       0       0       0       0       0       
      +0       0       0       0       0
  5588 ;;Total ram usage:        1 bytes
  5589 ;; Hardware stack levels used: 1
  5590 ;; Hardware stack levels required when called: 2
  5591 ;; This function calls:
  5592 ;;		Nothing
  5593 ;; This function is called by:
  5594 ;;		_EUSART_ASYNC_WriteStringBlocking
  5595 ;; This function uses a non-reentrant model
  5596 ;;
  5597                           
  5598                           	psect	text23
  5599   0031EE                     __ptext23:
  5600                           	callstack 0
  5601   0031EE                     _EUSART_ASYNC_WriteByteBlocking:
  5602                           	callstack 27
  5603                           
  5604                           ;incstack = 0
  5605                           ;EUSART_ASYNC_WriteByteBlocking@_data stored from wreg
  5606   0031EE  6E02               	movwf	EUSART_ASYNC_WriteByteBlocking@_data^0,c
  5607   0031F0                     l1481:
  5608   0031F0  A2AC               	btfss	172,1,c	;volatile
  5609   0031F2  EFFD  F018         	goto	u5091
  5610   0031F6  EFFF  F018         	goto	u5090
  5611   0031FA                     u5091:
  5612   0031FA  EFF8  F018         	goto	l1481
  5613   0031FE                     u5090:
  5614   0031FE                     
  5615                           ;mcal_layer/usart/hal_usart.c: 76:     (PIE1bits.TXIE = 1);
  5616   0031FE  889D               	bsf	157,4,c	;volatile
  5617   003200                     
  5618                           ;mcal_layer/usart/hal_usart.c: 78:     TXREG = _data;
  5619   003200  C002  FFAD         	movff	EUSART_ASYNC_WriteByteBlocking@_data,4013	;volatile
  5620   003204                     
  5621                           ;mcal_layer/usart/hal_usart.c: 79:     return ret;
  5622   003204  0E01               	movlw	1
  5623   003206  0012               	return		;funcret
  5624   003208                     __end_of_EUSART_ASYNC_WriteByteBlocking:
  5625                           	callstack 0
  5626                           
  5627 ;; *************** function _EUSART_ASYNC_ReadByteBlocking *****************
  5628 ;; Defined at:
  5629 ;;		line 46 in file "mcal_layer/usart/hal_usart.c"
  5630 ;; Parameters:    Size  Location     Type
  5631 ;;  _data           2    1[COMRAM] PTR unsigned char 
  5632 ;;		 -> c(1), 
  5633 ;; Auto vars:     Size  Location     Type
  5634 ;;  ret             1    0        unsigned char 
  5635 ;; Return value:  Size  Location     Type
  5636 ;;                  1    wreg      unsigned char 
  5637 ;; Registers used:
  5638 ;;		wreg, fsr2l, fsr2h, status,2
  5639 ;; Tracked objects:
  5640 ;;		On entry : 0/0
  5641 ;;		On exit  : 0/0
  5642 ;;		Unchanged: 0/0
  5643 ;; Data sizes:     COMRAM   BANK0   BANK1   BANK2   BANK3   BANK4   BANK5   BANK6   BANK7   BANK8   BANK9  BANK10  BANK1
      +1  BANK12  BANK13  BANK14  BANK15
  5644 ;;      Params:         2       0       0       0       0       0       0       0       0       0       0       0       
      +0       0       0       0       0
  5645 ;;      Locals:         0       0       0       0       0       0       0       0       0       0       0       0       
      +0       0       0       0       0
  5646 ;;      Temps:          0       0       0       0       0       0       0       0       0       0       0       0       
      +0       0       0       0       0
  5647 ;;      Totals:         2       0       0       0       0       0       0       0       0       0       0       0       
      +0       0       0       0       0
  5648 ;;Total ram usage:        2 bytes
  5649 ;; Hardware stack levels used: 1
  5650 ;; Hardware stack levels required when called: 2
  5651 ;; This function calls:
  5652 ;;		Nothing
  5653 ;; This function is called by:
  5654 ;;		_main
  5655 ;; This function uses a non-reentrant model
  5656 ;;
  5657                           
  5658                           	psect	text24
  5659   0031D0                     __ptext24:
  5660                           	callstack 0
  5661   0031D0                     _EUSART_ASYNC_ReadByteBlocking:
  5662                           	callstack 28
  5663   0031D0                     l1467:
  5664   0031D0  AA9E               	btfss	158,5,c	;volatile
  5665   0031D2  EFED  F018         	goto	u5351
  5666   0031D6  EFEF  F018         	goto	u5350
  5667   0031DA                     u5351:
  5668   0031DA  EFE8  F018         	goto	l1467
  5669   0031DE                     u5350:
  5670   0031DE                     
  5671                           ;mcal_layer/usart/hal_usart.c: 49:     *_data = RCREG;
  5672   0031DE  C002  FFD9         	movff	EUSART_ASYNC_ReadByteBlocking@_data,fsr2l
  5673   0031E2  C003  FFDA         	movff	EUSART_ASYNC_ReadByteBlocking@_data+1,fsr2h
  5674   0031E6  CFAE FFDF          	movff	4014,indf2	;volatile
  5675   0031EA                     
  5676                           ;mcal_layer/usart/hal_usart.c: 50:     return ret;
  5677   0031EA  0E00               	movlw	0
  5678   0031EC  0012               	return		;funcret
  5679   0031EE                     __end_of_EUSART_ASYNC_ReadByteBlocking:
  5680                           	callstack 0
  5681                           
  5682 ;; *************** function _InterruptManager *****************
  5683 ;; Defined at:
  5684 ;;		line 32 in file "interupt/mcal_interupt_manage.c"
  5685 ;; Parameters:    Size  Location     Type
  5686 ;;		None
  5687 ;; Auto vars:     Size  Location     Type
  5688 ;;		None
  5689 ;; Return value:  Size  Location     Type
  5690 ;;                  1    wreg      void 
  5691 ;; Registers used:
  5692 ;;		wreg, status,2, status,0, cstack
  5693 ;; Tracked objects:
  5694 ;;		On entry : 0/0
  5695 ;;		On exit  : 0/0
  5696 ;;		Unchanged: 0/0
  5697 ;; Data sizes:     COMRAM   BANK0   BANK1   BANK2   BANK3   BANK4   BANK5   BANK6   BANK7   BANK8   BANK9  BANK10  BANK1
      +1  BANK12  BANK13  BANK14  BANK15
  5698 ;;      Params:         0       0       0       0       0       0       0       0       0       0       0       0       
      +0       0       0       0       0
  5699 ;;      Locals:         0       0       0       0       0       0       0       0       0       0       0       0       
      +0       0       0       0       0
  5700 ;;      Temps:          0       0       0       0       0       0       0       0       0       0       0       0       
      +0       0       0       0       0
  5701 ;;      Totals:         0       0       0       0       0       0       0       0       0       0       0       0       
      +0       0       0       0       0
  5702 ;;Total ram usage:        0 bytes
  5703 ;; Hardware stack levels used: 1
  5704 ;; Hardware stack levels required when called: 1
  5705 ;; This function calls:
  5706 ;;		_ADC_ISR
  5707 ;;		_CCP1_ISR
  5708 ;;		_CCP2_ISR
  5709 ;;		_EUSART_RX_ISR
  5710 ;;		_EUSART_TX_ISR
  5711 ;;		_INT0_ISR
  5712 ;;		_INT1_ISR
  5713 ;;		_INT2_ISR
  5714 ;;		_MSSP_I2C_BC_ISR
  5715 ;;		_MSSP_I2C_ISR
  5716 ;;		_RB4_ISR
  5717 ;;		_RB5_ISR
  5718 ;;		_RB6_ISR
  5719 ;;		_RB7_ISR
  5720 ;;		_TMR0_ISR
  5721 ;;		_TMR1_ISR
  5722 ;;		_TMR2_ISR
  5723 ;;		_TMR3_ISR
  5724 ;; This function is called by:
  5725 ;;		Interrupt level 2
  5726 ;; This function uses a non-reentrant model
  5727 ;;
  5728                           
  5729                           	psect	intcode
  5730   000008                     __pintcode:
  5731                           	callstack 0
  5732   000008                     _InterruptManager:
  5733                           	callstack 25
  5734                           
  5735                           ;incstack = 0
  5736   000008  827E               	bsf	int$flags,1,c	;set compiler interrupt flag (level 2)
  5737   00000A  ED10  F00D         	call	int_func,f	;refresh shadow registers
  5738                           
  5739                           	psect	intcode_body
  5740   001A20                     __pintcode_body:
  5741                           	callstack 25
  5742   001A20                     int_func:
  5743                           	callstack 25
  5744   001A20  0006               	pop		; remove dummy address from shadow register refresh
  5745   001A22                     
  5746                           ;interupt/mcal_interupt_manage.c: 34:     if((1 == INTCONbits.INT0IE) && (1 == INTCONbit
      +                          s.INT0IF)){
  5747   001A22  A8F2               	btfss	242,4,c	;volatile
  5748   001A24  EF16  F00D         	goto	i2u610_41
  5749   001A28  EF18  F00D         	goto	i2u610_40
  5750   001A2C                     i2u610_41:
  5751   001A2C  EF21  F00D         	goto	i2l943
  5752   001A30                     i2u610_40:
  5753   001A30  A2F2               	btfss	242,1,c	;volatile
  5754   001A32  EF1D  F00D         	goto	i2u611_41
  5755   001A36  EF1F  F00D         	goto	i2u611_40
  5756   001A3A                     i2u611_41:
  5757   001A3A  EF21  F00D         	goto	i2l943
  5758   001A3E                     i2u611_40:
  5759   001A3E                     
  5760                           ;interupt/mcal_interupt_manage.c: 35:         INT0_ISR();
  5761   001A3E  EC5B  F019         	call	_INT0_ISR	;wreg free
  5762   001A42                     i2l943:
  5763                           
  5764                           ;interupt/mcal_interupt_manage.c: 38:     if((1 == INTCON3bits.INT1E) && (1 == INTCON3bi
      +                          ts.INT1F)){
  5765   001A42  A6F0               	btfss	240,3,c	;volatile
  5766   001A44  EF26  F00D         	goto	i2u612_41
  5767   001A48  EF28  F00D         	goto	i2u612_40
  5768   001A4C                     i2u612_41:
  5769   001A4C  EF31  F00D         	goto	i2l945
  5770   001A50                     i2u612_40:
  5771   001A50  A0F0               	btfss	240,0,c	;volatile
  5772   001A52  EF2D  F00D         	goto	i2u613_41
  5773   001A56  EF2F  F00D         	goto	i2u613_40
  5774   001A5A                     i2u613_41:
  5775   001A5A  EF31  F00D         	goto	i2l945
  5776   001A5E                     i2u613_40:
  5777   001A5E                     
  5778                           ;interupt/mcal_interupt_manage.c: 39:         INT1_ISR();
  5779   001A5E  EC59  F019         	call	_INT1_ISR	;wreg free
  5780   001A62                     i2l945:
  5781                           
  5782                           ;interupt/mcal_interupt_manage.c: 42:     if((1 == INTCON3bits.INT2IE) && (1 == INTCON3b
      +                          its.INT2IF)){
  5783   001A62  A8F0               	btfss	240,4,c	;volatile
  5784   001A64  EF36  F00D         	goto	i2u614_41
  5785   001A68  EF38  F00D         	goto	i2u614_40
  5786   001A6C                     i2u614_41:
  5787   001A6C  EF41  F00D         	goto	i2l947
  5788   001A70                     i2u614_40:
  5789   001A70  A2F0               	btfss	240,1,c	;volatile
  5790   001A72  EF3D  F00D         	goto	i2u615_41
  5791   001A76  EF3F  F00D         	goto	i2u615_40
  5792   001A7A                     i2u615_41:
  5793   001A7A  EF41  F00D         	goto	i2l947
  5794   001A7E                     i2u615_40:
  5795   001A7E                     
  5796                           ;interupt/mcal_interupt_manage.c: 43:         INT2_ISR();
  5797   001A7E  EC57  F019         	call	_INT2_ISR	;wreg free
  5798   001A82                     i2l947:
  5799                           
  5800                           ;interupt/mcal_interupt_manage.c: 48:     if((1 == INTCONbits.RBIE) && (1 == INTCONbits.
      +                          RBIF) &&
  5801   001A82  A6F2               	btfss	242,3,c	;volatile
  5802   001A84  EF46  F00D         	goto	i2u616_41
  5803   001A88  EF48  F00D         	goto	i2u616_40
  5804   001A8C                     i2u616_41:
  5805   001A8C  EF63  F00D         	goto	i2l949
  5806   001A90                     i2u616_40:
  5807   001A90  A0F2               	btfss	242,0,c	;volatile
  5808   001A92  EF4D  F00D         	goto	i2u617_41
  5809   001A96  EF4F  F00D         	goto	i2u617_40
  5810   001A9A                     i2u617_41:
  5811   001A9A  EF63  F00D         	goto	i2l949
  5812   001A9E                     i2u617_40:
  5813   001A9E  A881               	btfss	129,4,c	;volatile
  5814   001AA0  EF54  F00D         	goto	i2u618_41
  5815   001AA4  EF56  F00D         	goto	i2u618_40
  5816   001AA8                     i2u618_41:
  5817   001AA8  EF63  F00D         	goto	i2l949
  5818   001AAC                     i2u618_40:
  5819   001AAC  0478               	decf	_RB4_Flag^0,w,c	;volatile
  5820   001AAE  A4D8               	btfss	status,2,c
  5821   001AB0  EF5C  F00D         	goto	i2u619_41
  5822   001AB4  EF5E  F00D         	goto	i2u619_40
  5823   001AB8                     i2u619_41:
  5824   001AB8  EF63  F00D         	goto	i2l949
  5825   001ABC                     i2u619_40:
  5826   001ABC                     
  5827                           ;interupt/mcal_interupt_manage.c: 49:        (PORTBbits.RB4 == HIGH) && (RB4_Flag == 1))
      +                          {;interupt/mcal_interupt_manage.c: 50:         RB4_Flag = 0;
  5828   001ABC  0E00               	movlw	0
  5829   001ABE  6E78               	movwf	_RB4_Flag^0,c	;volatile
  5830   001AC0                     
  5831                           ;interupt/mcal_interupt_manage.c: 51:         RB4_ISR(0);
  5832   001AC0  0E00               	movlw	0
  5833   001AC2  EC2B  F019         	call	_RB4_ISR
  5834   001AC6                     i2l949:
  5835                           
  5836                           ;interupt/mcal_interupt_manage.c: 54:     if((1 == INTCONbits.RBIE) && (1 == INTCONbits.
      +                          RBIF) &&
  5837   001AC6  A6F2               	btfss	242,3,c	;volatile
  5838   001AC8  EF68  F00D         	goto	i2u620_41
  5839   001ACC  EF6A  F00D         	goto	i2u620_40
  5840   001AD0                     i2u620_41:
  5841   001AD0  EF85  F00D         	goto	i2l951
  5842   001AD4                     i2u620_40:
  5843   001AD4  A0F2               	btfss	242,0,c	;volatile
  5844   001AD6  EF6F  F00D         	goto	i2u621_41
  5845   001ADA  EF71  F00D         	goto	i2u621_40
  5846   001ADE                     i2u621_41:
  5847   001ADE  EF85  F00D         	goto	i2l951
  5848   001AE2                     i2u621_40:
  5849   001AE2  B881               	btfsc	129,4,c	;volatile
  5850   001AE4  EF76  F00D         	goto	i2u622_41
  5851   001AE8  EF78  F00D         	goto	i2u622_40
  5852   001AEC                     i2u622_41:
  5853   001AEC  EF85  F00D         	goto	i2l951
  5854   001AF0                     i2u622_40:
  5855   001AF0  5078               	movf	_RB4_Flag^0,w,c	;volatile
  5856   001AF2  A4D8               	btfss	status,2,c
  5857   001AF4  EF7E  F00D         	goto	i2u623_41
  5858   001AF8  EF80  F00D         	goto	i2u623_40
  5859   001AFC                     i2u623_41:
  5860   001AFC  EF85  F00D         	goto	i2l951
  5861   001B00                     i2u623_40:
  5862   001B00                     
  5863                           ;interupt/mcal_interupt_manage.c: 55:        (PORTBbits.RB4 == LOW) && (RB4_Flag == 0)){
      +                          ;interupt/mcal_interupt_manage.c: 56:         RB4_Flag = 1;
  5864   001B00  0E01               	movlw	1
  5865   001B02  6E78               	movwf	_RB4_Flag^0,c	;volatile
  5866   001B04                     
  5867                           ;interupt/mcal_interupt_manage.c: 57:         RB4_ISR(1);
  5868   001B04  0E01               	movlw	1
  5869   001B06  EC2B  F019         	call	_RB4_ISR
  5870   001B0A                     i2l951:
  5871                           
  5872                           ;interupt/mcal_interupt_manage.c: 60:     if((1 == INTCONbits.RBIE) && (1 == INTCONbits.
      +                          RBIF) &&
  5873   001B0A  A6F2               	btfss	242,3,c	;volatile
  5874   001B0C  EF8A  F00D         	goto	i2u624_41
  5875   001B10  EF8C  F00D         	goto	i2u624_40
  5876   001B14                     i2u624_41:
  5877   001B14  EFA7  F00D         	goto	i2l953
  5878   001B18                     i2u624_40:
  5879   001B18  A0F2               	btfss	242,0,c	;volatile
  5880   001B1A  EF91  F00D         	goto	i2u625_41
  5881   001B1E  EF93  F00D         	goto	i2u625_40
  5882   001B22                     i2u625_41:
  5883   001B22  EFA7  F00D         	goto	i2l953
  5884   001B26                     i2u625_40:
  5885   001B26  AA81               	btfss	129,5,c	;volatile
  5886   001B28  EF98  F00D         	goto	i2u626_41
  5887   001B2C  EF9A  F00D         	goto	i2u626_40
  5888   001B30                     i2u626_41:
  5889   001B30  EFA7  F00D         	goto	i2l953
  5890   001B34                     i2u626_40:
  5891   001B34  0477               	decf	_RB5_Flag^0,w,c	;volatile
  5892   001B36  A4D8               	btfss	status,2,c
  5893   001B38  EFA0  F00D         	goto	i2u627_41
  5894   001B3C  EFA2  F00D         	goto	i2u627_40
  5895   001B40                     i2u627_41:
  5896   001B40  EFA7  F00D         	goto	i2l953
  5897   001B44                     i2u627_40:
  5898   001B44                     
  5899                           ;interupt/mcal_interupt_manage.c: 61:        (PORTBbits.RB5 == HIGH) && (RB5_Flag == 1))
      +                          {;interupt/mcal_interupt_manage.c: 62:         RB5_Flag = 0;
  5900   001B44  0E00               	movlw	0
  5901   001B46  6E77               	movwf	_RB5_Flag^0,c	;volatile
  5902   001B48                     
  5903                           ;interupt/mcal_interupt_manage.c: 63:         RB5_ISR(0);
  5904   001B48  0E00               	movlw	0
  5905   001B4A  EC1E  F019         	call	_RB5_ISR
  5906   001B4E                     i2l953:
  5907                           
  5908                           ;interupt/mcal_interupt_manage.c: 66:     if((1 == INTCONbits.RBIE) && (1 == INTCONbits.
      +                          RBIF) &&
  5909   001B4E  A6F2               	btfss	242,3,c	;volatile
  5910   001B50  EFAC  F00D         	goto	i2u628_41
  5911   001B54  EFAE  F00D         	goto	i2u628_40
  5912   001B58                     i2u628_41:
  5913   001B58  EFC9  F00D         	goto	i2l955
  5914   001B5C                     i2u628_40:
  5915   001B5C  A0F2               	btfss	242,0,c	;volatile
  5916   001B5E  EFB3  F00D         	goto	i2u629_41
  5917   001B62  EFB5  F00D         	goto	i2u629_40
  5918   001B66                     i2u629_41:
  5919   001B66  EFC9  F00D         	goto	i2l955
  5920   001B6A                     i2u629_40:
  5921   001B6A  BA81               	btfsc	129,5,c	;volatile
  5922   001B6C  EFBA  F00D         	goto	i2u630_41
  5923   001B70  EFBC  F00D         	goto	i2u630_40
  5924   001B74                     i2u630_41:
  5925   001B74  EFC9  F00D         	goto	i2l955
  5926   001B78                     i2u630_40:
  5927   001B78  5077               	movf	_RB5_Flag^0,w,c	;volatile
  5928   001B7A  A4D8               	btfss	status,2,c
  5929   001B7C  EFC2  F00D         	goto	i2u631_41
  5930   001B80  EFC4  F00D         	goto	i2u631_40
  5931   001B84                     i2u631_41:
  5932   001B84  EFC9  F00D         	goto	i2l955
  5933   001B88                     i2u631_40:
  5934   001B88                     
  5935                           ;interupt/mcal_interupt_manage.c: 67:        (PORTBbits.RB5 == LOW) && (RB5_Flag == 0)){
      +                          ;interupt/mcal_interupt_manage.c: 68:         RB5_Flag = 1;
  5936   001B88  0E01               	movlw	1
  5937   001B8A  6E77               	movwf	_RB5_Flag^0,c	;volatile
  5938   001B8C                     
  5939                           ;interupt/mcal_interupt_manage.c: 69:         RB5_ISR(1);
  5940   001B8C  0E01               	movlw	1
  5941   001B8E  EC1E  F019         	call	_RB5_ISR
  5942   001B92                     i2l955:
  5943                           
  5944                           ;interupt/mcal_interupt_manage.c: 72:     if((1 == INTCONbits.RBIE) && (1 == INTCONbits.
      +                          RBIF) &&
  5945   001B92  A6F2               	btfss	242,3,c	;volatile
  5946   001B94  EFCE  F00D         	goto	i2u632_41
  5947   001B98  EFD0  F00D         	goto	i2u632_40
  5948   001B9C                     i2u632_41:
  5949   001B9C  EFEB  F00D         	goto	i2l957
  5950   001BA0                     i2u632_40:
  5951   001BA0  A0F2               	btfss	242,0,c	;volatile
  5952   001BA2  EFD5  F00D         	goto	i2u633_41
  5953   001BA6  EFD7  F00D         	goto	i2u633_40
  5954   001BAA                     i2u633_41:
  5955   001BAA  EFEB  F00D         	goto	i2l957
  5956   001BAE                     i2u633_40:
  5957   001BAE  AC81               	btfss	129,6,c	;volatile
  5958   001BB0  EFDC  F00D         	goto	i2u634_41
  5959   001BB4  EFDE  F00D         	goto	i2u634_40
  5960   001BB8                     i2u634_41:
  5961   001BB8  EFEB  F00D         	goto	i2l957
  5962   001BBC                     i2u634_40:
  5963   001BBC  0476               	decf	_RB6_Flag^0,w,c	;volatile
  5964   001BBE  A4D8               	btfss	status,2,c
  5965   001BC0  EFE4  F00D         	goto	i2u635_41
  5966   001BC4  EFE6  F00D         	goto	i2u635_40
  5967   001BC8                     i2u635_41:
  5968   001BC8  EFEB  F00D         	goto	i2l957
  5969   001BCC                     i2u635_40:
  5970   001BCC                     
  5971                           ;interupt/mcal_interupt_manage.c: 73:        (PORTBbits.RB6 == HIGH) && (RB6_Flag == 1))
      +                          {;interupt/mcal_interupt_manage.c: 74:         RB6_Flag = 0;
  5972   001BCC  0E00               	movlw	0
  5973   001BCE  6E76               	movwf	_RB6_Flag^0,c	;volatile
  5974   001BD0                     
  5975                           ;interupt/mcal_interupt_manage.c: 75:         RB6_ISR(0);
  5976   001BD0  0E00               	movlw	0
  5977   001BD2  EC11  F019         	call	_RB6_ISR
  5978   001BD6                     i2l957:
  5979                           
  5980                           ;interupt/mcal_interupt_manage.c: 78:     if((1 == INTCONbits.RBIE) && (1 == INTCONbits.
      +                          RBIF) &&
  5981   001BD6  A6F2               	btfss	242,3,c	;volatile
  5982   001BD8  EFF0  F00D         	goto	i2u636_41
  5983   001BDC  EFF2  F00D         	goto	i2u636_40
  5984   001BE0                     i2u636_41:
  5985   001BE0  EF0D  F00E         	goto	i2l959
  5986   001BE4                     i2u636_40:
  5987   001BE4  A0F2               	btfss	242,0,c	;volatile
  5988   001BE6  EFF7  F00D         	goto	i2u637_41
  5989   001BEA  EFF9  F00D         	goto	i2u637_40
  5990   001BEE                     i2u637_41:
  5991   001BEE  EF0D  F00E         	goto	i2l959
  5992   001BF2                     i2u637_40:
  5993   001BF2  BC81               	btfsc	129,6,c	;volatile
  5994   001BF4  EFFE  F00D         	goto	i2u638_41
  5995   001BF8  EF00  F00E         	goto	i2u638_40
  5996   001BFC                     i2u638_41:
  5997   001BFC  EF0D  F00E         	goto	i2l959
  5998   001C00                     i2u638_40:
  5999   001C00  5076               	movf	_RB6_Flag^0,w,c	;volatile
  6000   001C02  A4D8               	btfss	status,2,c
  6001   001C04  EF06  F00E         	goto	i2u639_41
  6002   001C08  EF08  F00E         	goto	i2u639_40
  6003   001C0C                     i2u639_41:
  6004   001C0C  EF0D  F00E         	goto	i2l959
  6005   001C10                     i2u639_40:
  6006   001C10                     
  6007                           ;interupt/mcal_interupt_manage.c: 79:        (PORTBbits.RB6 == LOW) && (RB6_Flag == 0)){
      +                          ;interupt/mcal_interupt_manage.c: 80:         RB6_Flag = 1;
  6008   001C10  0E01               	movlw	1
  6009   001C12  6E76               	movwf	_RB6_Flag^0,c	;volatile
  6010   001C14                     
  6011                           ;interupt/mcal_interupt_manage.c: 81:         RB6_ISR(1);
  6012   001C14  0E01               	movlw	1
  6013   001C16  EC11  F019         	call	_RB6_ISR
  6014   001C1A                     i2l959:
  6015                           
  6016                           ;interupt/mcal_interupt_manage.c: 84:     if((1 == INTCONbits.RBIE) && (1 == INTCONbits.
      +                          RBIF) &&
  6017   001C1A  A6F2               	btfss	242,3,c	;volatile
  6018   001C1C  EF12  F00E         	goto	i2u640_41
  6019   001C20  EF14  F00E         	goto	i2u640_40
  6020   001C24                     i2u640_41:
  6021   001C24  EF2F  F00E         	goto	i2l961
  6022   001C28                     i2u640_40:
  6023   001C28  A0F2               	btfss	242,0,c	;volatile
  6024   001C2A  EF19  F00E         	goto	i2u641_41
  6025   001C2E  EF1B  F00E         	goto	i2u641_40
  6026   001C32                     i2u641_41:
  6027   001C32  EF2F  F00E         	goto	i2l961
  6028   001C36                     i2u641_40:
  6029   001C36  AE81               	btfss	129,7,c	;volatile
  6030   001C38  EF20  F00E         	goto	i2u642_41
  6031   001C3C  EF22  F00E         	goto	i2u642_40
  6032   001C40                     i2u642_41:
  6033   001C40  EF2F  F00E         	goto	i2l961
  6034   001C44                     i2u642_40:
  6035   001C44  0475               	decf	_RB7_Flag^0,w,c	;volatile
  6036   001C46  A4D8               	btfss	status,2,c
  6037   001C48  EF28  F00E         	goto	i2u643_41
  6038   001C4C  EF2A  F00E         	goto	i2u643_40
  6039   001C50                     i2u643_41:
  6040   001C50  EF2F  F00E         	goto	i2l961
  6041   001C54                     i2u643_40:
  6042   001C54                     
  6043                           ;interupt/mcal_interupt_manage.c: 85:        (PORTBbits.RB7 == HIGH) && (RB7_Flag == 1))
      +                          {;interupt/mcal_interupt_manage.c: 86:         RB7_Flag = 0;
  6044   001C54  0E00               	movlw	0
  6045   001C56  6E75               	movwf	_RB7_Flag^0,c	;volatile
  6046   001C58                     
  6047                           ;interupt/mcal_interupt_manage.c: 87:         RB7_ISR(0);
  6048   001C58  0E00               	movlw	0
  6049   001C5A  EC04  F019         	call	_RB7_ISR
  6050   001C5E                     i2l961:
  6051                           
  6052                           ;interupt/mcal_interupt_manage.c: 90:     if((1 == INTCONbits.RBIE) && (1 == INTCONbits.
      +                          RBIF) &&
  6053   001C5E  A6F2               	btfss	242,3,c	;volatile
  6054   001C60  EF34  F00E         	goto	i2u644_41
  6055   001C64  EF36  F00E         	goto	i2u644_40
  6056   001C68                     i2u644_41:
  6057   001C68  EF51  F00E         	goto	i2l963
  6058   001C6C                     i2u644_40:
  6059   001C6C  A0F2               	btfss	242,0,c	;volatile
  6060   001C6E  EF3B  F00E         	goto	i2u645_41
  6061   001C72  EF3D  F00E         	goto	i2u645_40
  6062   001C76                     i2u645_41:
  6063   001C76  EF51  F00E         	goto	i2l963
  6064   001C7A                     i2u645_40:
  6065   001C7A  BE81               	btfsc	129,7,c	;volatile
  6066   001C7C  EF42  F00E         	goto	i2u646_41
  6067   001C80  EF44  F00E         	goto	i2u646_40
  6068   001C84                     i2u646_41:
  6069   001C84  EF51  F00E         	goto	i2l963
  6070   001C88                     i2u646_40:
  6071   001C88  5075               	movf	_RB7_Flag^0,w,c	;volatile
  6072   001C8A  A4D8               	btfss	status,2,c
  6073   001C8C  EF4A  F00E         	goto	i2u647_41
  6074   001C90  EF4C  F00E         	goto	i2u647_40
  6075   001C94                     i2u647_41:
  6076   001C94  EF51  F00E         	goto	i2l963
  6077   001C98                     i2u647_40:
  6078   001C98                     
  6079                           ;interupt/mcal_interupt_manage.c: 91:        (PORTBbits.RB7 == LOW) && (RB7_Flag == 0)){
      +                          ;interupt/mcal_interupt_manage.c: 92:         RB7_Flag = 1;
  6080   001C98  0E01               	movlw	1
  6081   001C9A  6E75               	movwf	_RB7_Flag^0,c	;volatile
  6082   001C9C                     
  6083                           ;interupt/mcal_interupt_manage.c: 93:         RB7_ISR(1);
  6084   001C9C  0E01               	movlw	1
  6085   001C9E  EC04  F019         	call	_RB7_ISR
  6086   001CA2                     i2l963:
  6087                           
  6088                           ;interupt/mcal_interupt_manage.c: 101:       if((1 == PIE1bits.ADIE) && (1 == PIR1bits.A
      +                          DIF)){
  6089   001CA2  AC9D               	btfss	157,6,c	;volatile
  6090   001CA4  EF56  F00E         	goto	i2u648_41
  6091   001CA8  EF58  F00E         	goto	i2u648_40
  6092   001CAC                     i2u648_41:
  6093   001CAC  EF61  F00E         	goto	i2l965
  6094   001CB0                     i2u648_40:
  6095   001CB0  AC9E               	btfss	158,6,c	;volatile
  6096   001CB2  EF5D  F00E         	goto	i2u649_41
  6097   001CB6  EF5F  F00E         	goto	i2u649_40
  6098   001CBA                     i2u649_41:
  6099   001CBA  EF61  F00E         	goto	i2l965
  6100   001CBE                     i2u649_40:
  6101   001CBE                     
  6102                           ;interupt/mcal_interupt_manage.c: 102:       ADC_ISR();
  6103   001CBE  EC63  F019         	call	_ADC_ISR	;wreg free
  6104   001CC2                     i2l965:
  6105                           
  6106                           ;interupt/mcal_interupt_manage.c: 107:      if((1 == INTCONbits.TMR0IE) && (1 == INTCONb
      +                          its.TMR0IF)){
  6107   001CC2  AAF2               	btfss	242,5,c	;volatile
  6108   001CC4  EF66  F00E         	goto	i2u650_41
  6109   001CC8  EF68  F00E         	goto	i2u650_40
  6110   001CCC                     i2u650_41:
  6111   001CCC  EF71  F00E         	goto	i2l967
  6112   001CD0                     i2u650_40:
  6113   001CD0  A4F2               	btfss	242,2,c	;volatile
  6114   001CD2  EF6D  F00E         	goto	i2u651_41
  6115   001CD6  EF6F  F00E         	goto	i2u651_40
  6116   001CDA                     i2u651_41:
  6117   001CDA  EF71  F00E         	goto	i2l967
  6118   001CDE                     i2u651_40:
  6119   001CDE                     
  6120                           ;interupt/mcal_interupt_manage.c: 108:         TMR0_ISR();
  6121   001CDE  EC44  F019         	call	_TMR0_ISR	;wreg free
  6122   001CE2                     i2l967:
  6123                           
  6124                           ;interupt/mcal_interupt_manage.c: 112:      if((1 == PIE1bits.TMR1IE) && (1 == PIR1bits.
      +                          TMR1IF)){
  6125   001CE2  A09D               	btfss	157,0,c	;volatile
  6126   001CE4  EF76  F00E         	goto	i2u652_41
  6127   001CE8  EF78  F00E         	goto	i2u652_40
  6128   001CEC                     i2u652_41:
  6129   001CEC  EF81  F00E         	goto	i2l969
  6130   001CF0                     i2u652_40:
  6131   001CF0  A09E               	btfss	158,0,c	;volatile
  6132   001CF2  EF7D  F00E         	goto	i2u653_41
  6133   001CF6  EF7F  F00E         	goto	i2u653_40
  6134   001CFA                     i2u653_41:
  6135   001CFA  EF81  F00E         	goto	i2l969
  6136   001CFE                     i2u653_40:
  6137   001CFE                     
  6138                           ;interupt/mcal_interupt_manage.c: 113:         TMR1_ISR();
  6139   001CFE  EC3E  F019         	call	_TMR1_ISR	;wreg free
  6140   001D02                     i2l969:
  6141                           
  6142                           ;interupt/mcal_interupt_manage.c: 117:      if((1 == PIE1bits.TMR2IE) && (1 == PIR1bits.
      +                          TMR2IF)){
  6143   001D02  A29D               	btfss	157,1,c	;volatile
  6144   001D04  EF86  F00E         	goto	i2u654_41
  6145   001D08  EF88  F00E         	goto	i2u654_40
  6146   001D0C                     i2u654_41:
  6147   001D0C  EF91  F00E         	goto	i2l971
  6148   001D10                     i2u654_40:
  6149   001D10  A29E               	btfss	158,1,c	;volatile
  6150   001D12  EF8D  F00E         	goto	i2u655_41
  6151   001D16  EF8F  F00E         	goto	i2u655_40
  6152   001D1A                     i2u655_41:
  6153   001D1A  EF91  F00E         	goto	i2l971
  6154   001D1E                     i2u655_40:
  6155   001D1E                     
  6156                           ;interupt/mcal_interupt_manage.c: 118:         TMR2_ISR();
  6157   001D1E  EC4F  F019         	call	_TMR2_ISR	;wreg free
  6158   001D22                     i2l971:
  6159                           
  6160                           ;interupt/mcal_interupt_manage.c: 122:     if((1 == PIE2bits.TMR3IE) && (1 == PIR2bits.T
      +                          MR3IF)){
  6161   001D22  A2A0               	btfss	160,1,c	;volatile
  6162   001D24  EF96  F00E         	goto	i2u656_41
  6163   001D28  EF98  F00E         	goto	i2u656_40
  6164   001D2C                     i2u656_41:
  6165   001D2C  EFA1  F00E         	goto	i2l973
  6166   001D30                     i2u656_40:
  6167   001D30  A2A1               	btfss	161,1,c	;volatile
  6168   001D32  EF9D  F00E         	goto	i2u657_41
  6169   001D36  EF9F  F00E         	goto	i2u657_40
  6170   001D3A                     i2u657_41:
  6171   001D3A  EFA1  F00E         	goto	i2l973
  6172   001D3E                     i2u657_40:
  6173   001D3E                     
  6174                           ;interupt/mcal_interupt_manage.c: 123:         TMR3_ISR();
  6175   001D3E  EC38  F019         	call	_TMR3_ISR	;wreg free
  6176   001D42                     i2l973:
  6177                           
  6178                           ;interupt/mcal_interupt_manage.c: 132:     if((1 == PIE1bits.CCP1IE) && (1 == PIR1bits.C
      +                          CP1IF)){
  6179   001D42  A49D               	btfss	157,2,c	;volatile
  6180   001D44  EFA6  F00E         	goto	i2u658_41
  6181   001D48  EFA8  F00E         	goto	i2u658_40
  6182   001D4C                     i2u658_41:
  6183   001D4C  EFB1  F00E         	goto	i2l975
  6184   001D50                     i2u658_40:
  6185   001D50  A49E               	btfss	158,2,c	;volatile
  6186   001D52  EFAD  F00E         	goto	i2u659_41
  6187   001D56  EFAF  F00E         	goto	i2u659_40
  6188   001D5A                     i2u659_41:
  6189   001D5A  EFB1  F00E         	goto	i2l975
  6190   001D5E                     i2u659_40:
  6191   001D5E                     
  6192                           ;interupt/mcal_interupt_manage.c: 133:         CCP1_ISR();
  6193   001D5E  EC61  F019         	call	_CCP1_ISR	;wreg free
  6194   001D62                     i2l975:
  6195                           
  6196                           ;interupt/mcal_interupt_manage.c: 136:     if((1 == PIE2bits.CCP2IE) && (1 == PIR2bits.C
      +                          CP2IF)){
  6197   001D62  A0A0               	btfss	160,0,c	;volatile
  6198   001D64  EFB6  F00E         	goto	i2u660_41
  6199   001D68  EFB8  F00E         	goto	i2u660_40
  6200   001D6C                     i2u660_41:
  6201   001D6C  EFC1  F00E         	goto	i2l977
  6202   001D70                     i2u660_40:
  6203   001D70  A0A1               	btfss	161,0,c	;volatile
  6204   001D72  EFBD  F00E         	goto	i2u661_41
  6205   001D76  EFBF  F00E         	goto	i2u661_40
  6206   001D7A                     i2u661_41:
  6207   001D7A  EFC1  F00E         	goto	i2l977
  6208   001D7E                     i2u661_40:
  6209   001D7E                     
  6210                           ;interupt/mcal_interupt_manage.c: 137:         CCP2_ISR();
  6211   001D7E  EC5F  F019         	call	_CCP2_ISR	;wreg free
  6212   001D82                     i2l977:
  6213                           
  6214                           ;interupt/mcal_interupt_manage.c: 144:      if((1 == PIE1bits.TXIE) && (1 == PIR1bits.TX
      +                          IF)){
  6215   001D82  A89D               	btfss	157,4,c	;volatile
  6216   001D84  EFC6  F00E         	goto	i2u662_41
  6217   001D88  EFC8  F00E         	goto	i2u662_40
  6218   001D8C                     i2u662_41:
  6219   001D8C  EFD1  F00E         	goto	i2l979
  6220   001D90                     i2u662_40:
  6221   001D90  A89E               	btfss	158,4,c	;volatile
  6222   001D92  EFCD  F00E         	goto	i2u663_41
  6223   001D96  EFCF  F00E         	goto	i2u663_40
  6224   001D9A                     i2u663_41:
  6225   001D9A  EFD1  F00E         	goto	i2l979
  6226   001D9E                     i2u663_40:
  6227   001D9E                     
  6228                           ;interupt/mcal_interupt_manage.c: 145:         EUSART_TX_ISR();
  6229   001D9E  EC5D  F019         	call	_EUSART_TX_ISR	;wreg free
  6230   001DA2                     i2l979:
  6231                           
  6232                           ;interupt/mcal_interupt_manage.c: 150:     if((1 == PIE1bits.RCIE) && (1 == PIR1bits.RCI
      +                          F)){
  6233   001DA2  AA9D               	btfss	157,5,c	;volatile
  6234   001DA4  EFD6  F00E         	goto	i2u664_41
  6235   001DA8  EFD8  F00E         	goto	i2u664_40
  6236   001DAC                     i2u664_41:
  6237   001DAC  EFE1  F00E         	goto	i2l981
  6238   001DB0                     i2u664_40:
  6239   001DB0  AA9E               	btfss	158,5,c	;volatile
  6240   001DB2  EFDD  F00E         	goto	i2u665_41
  6241   001DB6  EFDF  F00E         	goto	i2u665_40
  6242   001DBA                     i2u665_41:
  6243   001DBA  EFE1  F00E         	goto	i2l981
  6244   001DBE                     i2u665_40:
  6245   001DBE                     
  6246                           ;interupt/mcal_interupt_manage.c: 151:         EUSART_RX_ISR();
  6247   001DBE  EC65  F019         	call	_EUSART_RX_ISR	;wreg free
  6248   001DC2                     i2l981:
  6249                           
  6250                           ;interupt/mcal_interupt_manage.c: 157:     if((1 == PIE1bits.SSPIE) && (1 == PIR1bits.SS
      +                          PIF)){
  6251   001DC2  A69D               	btfss	157,3,c	;volatile
  6252   001DC4  EFE6  F00E         	goto	i2u666_41
  6253   001DC8  EFE8  F00E         	goto	i2u666_40
  6254   001DCC                     i2u666_41:
  6255   001DCC  EFF1  F00E         	goto	i2l983
  6256   001DD0                     i2u666_40:
  6257   001DD0  A69E               	btfss	158,3,c	;volatile
  6258   001DD2  EFED  F00E         	goto	i2u667_41
  6259   001DD6  EFEF  F00E         	goto	i2u667_40
  6260   001DDA                     i2u667_41:
  6261   001DDA  EFF1  F00E         	goto	i2l983
  6262   001DDE                     i2u667_40:
  6263   001DDE                     
  6264                           ;interupt/mcal_interupt_manage.c: 158:         MSSP_I2C_ISR();
  6265   001DDE  EC53  F019         	call	_MSSP_I2C_ISR	;wreg free
  6266   001DE2                     i2l983:
  6267                           
  6268                           ;interupt/mcal_interupt_manage.c: 161:     if((1 == PIE2bits.BCLIE) && (1 == PIR2bits.BC
      +                          LIF)){
  6269   001DE2  A6A0               	btfss	160,3,c	;volatile
  6270   001DE4  EFF6  F00E         	goto	i2u668_41
  6271   001DE8  EFF8  F00E         	goto	i2u668_40
  6272   001DEC                     i2u668_41:
  6273   001DEC  EF01  F00F         	goto	i2l986
  6274   001DF0                     i2u668_40:
  6275   001DF0  A6A1               	btfss	161,3,c	;volatile
  6276   001DF2  EFFD  F00E         	goto	i2u669_41
  6277   001DF6  EFFF  F00E         	goto	i2u669_40
  6278   001DFA                     i2u669_41:
  6279   001DFA  EF01  F00F         	goto	i2l986
  6280   001DFE                     i2u669_40:
  6281   001DFE                     
  6282                           ;interupt/mcal_interupt_manage.c: 162:         MSSP_I2C_BC_ISR();
  6283   001DFE  EC55  F019         	call	_MSSP_I2C_BC_ISR	;wreg free
  6284   001E02                     i2l986:
  6285   001E02  927E               	bcf	int$flags,1,c	;clear compiler interrupt flag (level 2)
  6286   001E04  0011               	retfie		f
  6287   001E06                     __end_of_InterruptManager:
  6288                           	callstack 0
  6289                           
  6290 ;; *************** function _TMR3_ISR *****************
  6291 ;; Defined at:
  6292 ;;		line 96 in file "mcal_layer/Timer3/hal_timr3.c"
  6293 ;; Parameters:    Size  Location     Type
  6294 ;;		None
  6295 ;; Auto vars:     Size  Location     Type
  6296 ;;		None
  6297 ;; Return value:  Size  Location     Type
  6298 ;;                  1    wreg      void 
  6299 ;; Registers used:
  6300 ;;		wreg, status,2
  6301 ;; Tracked objects:
  6302 ;;		On entry : 0/0
  6303 ;;		On exit  : 0/0
  6304 ;;		Unchanged: 0/0
  6305 ;; Data sizes:     COMRAM   BANK0   BANK1   BANK2   BANK3   BANK4   BANK5   BANK6   BANK7   BANK8   BANK9  BANK10  BANK1
      +1  BANK12  BANK13  BANK14  BANK15
  6306 ;;      Params:         0       0       0       0       0       0       0       0       0       0       0       0       
      +0       0       0       0       0
  6307 ;;      Locals:         0       0       0       0       0       0       0       0       0       0       0       0       
      +0       0       0       0       0
  6308 ;;      Temps:          0       0       0       0       0       0       0       0       0       0       0       0       
      +0       0       0       0       0
  6309 ;;      Totals:         0       0       0       0       0       0       0       0       0       0       0       0       
      +0       0       0       0       0
  6310 ;;Total ram usage:        0 bytes
  6311 ;; Hardware stack levels used: 1
  6312 ;; This function calls:
  6313 ;;		Nothing
  6314 ;; This function is called by:
  6315 ;;		_InterruptManager
  6316 ;; This function uses a non-reentrant model
  6317 ;;
  6318                           
  6319                           	psect	text26
  6320   003270                     __ptext26:
  6321                           	callstack 0
  6322   003270                     _TMR3_ISR:
  6323                           	callstack 25
  6324   003270                     
  6325                           ;mcal_layer/Timer3/hal_timr3.c: 97:     (PIR2bits.TMR3IF = 0);
  6326   003270  92A1               	bcf	161,1,c	;volatile
  6327   003272                     
  6328                           ;mcal_layer/Timer3/hal_timr3.c: 98:     TMR3H = (timer3_preload) >> 8;
  6329   003272  504E               	movf	(_timer3_preload+1)^0,w,c
  6330   003274  6EB3               	movwf	179,c	;volatile
  6331   003276                     
  6332                           ;mcal_layer/Timer3/hal_timr3.c: 99:     TMR3L = (uint8)(timer3_preload);
  6333   003276  C04D  FFB2         	movff	_timer3_preload,4018	;volatile
  6334   00327A  0012               	return		;funcret
  6335   00327C                     __end_of_TMR3_ISR:
  6336                           	callstack 0
  6337                           
  6338 ;; *************** function _TMR2_ISR *****************
  6339 ;; Defined at:
  6340 ;;		line 91 in file "mcal_layer/Timer2/hal_timr2.c"
  6341 ;; Parameters:    Size  Location     Type
  6342 ;;		None
  6343 ;; Auto vars:     Size  Location     Type
  6344 ;;		None
  6345 ;; Return value:  Size  Location     Type
  6346 ;;                  1    wreg      void 
  6347 ;; Registers used:
  6348 ;;		None
  6349 ;; Tracked objects:
  6350 ;;		On entry : 0/0
  6351 ;;		On exit  : 0/0
  6352 ;;		Unchanged: 0/0
  6353 ;; Data sizes:     COMRAM   BANK0   BANK1   BANK2   BANK3   BANK4   BANK5   BANK6   BANK7   BANK8   BANK9  BANK10  BANK1
      +1  BANK12  BANK13  BANK14  BANK15
  6354 ;;      Params:         0       0       0       0       0       0       0       0       0       0       0       0       
      +0       0       0       0       0
  6355 ;;      Locals:         0       0       0       0       0       0       0       0       0       0       0       0       
      +0       0       0       0       0
  6356 ;;      Temps:          0       0       0       0       0       0       0       0       0       0       0       0       
      +0       0       0       0       0
  6357 ;;      Totals:         0       0       0       0       0       0       0       0       0       0       0       0       
      +0       0       0       0       0
  6358 ;;Total ram usage:        0 bytes
  6359 ;; Hardware stack levels used: 1
  6360 ;; This function calls:
  6361 ;;		Nothing
  6362 ;; This function is called by:
  6363 ;;		_InterruptManager
  6364 ;; This function uses a non-reentrant model
  6365 ;;
  6366                           
  6367                           	psect	text27
  6368   00329E                     __ptext27:
  6369                           	callstack 0
  6370   00329E                     _TMR2_ISR:
  6371                           	callstack 25
  6372   00329E                     
  6373                           ;mcal_layer/Timer2/hal_timr2.c: 92:     (PIR1bits.TMR2IF = 0);
  6374   00329E  929E               	bcf	158,1,c	;volatile
  6375                           
  6376                           ;mcal_layer/Timer2/hal_timr2.c: 93:     TMR2 = timer2_preload;
  6377   0032A0  C063  FFCC         	movff	_timer2_preload,4044	;volatile
  6378   0032A4  0012               	return		;funcret
  6379   0032A6                     __end_of_TMR2_ISR:
  6380                           	callstack 0
  6381                           
  6382 ;; *************** function _TMR1_ISR *****************
  6383 ;; Defined at:
  6384 ;;		line 96 in file "mcal_layer/Timer1/hal_timer1.c"
  6385 ;; Parameters:    Size  Location     Type
  6386 ;;		None
  6387 ;; Auto vars:     Size  Location     Type
  6388 ;;		None
  6389 ;; Return value:  Size  Location     Type
  6390 ;;                  1    wreg      void 
  6391 ;; Registers used:
  6392 ;;		wreg, status,2
  6393 ;; Tracked objects:
  6394 ;;		On entry : 0/0
  6395 ;;		On exit  : 0/0
  6396 ;;		Unchanged: 0/0
  6397 ;; Data sizes:     COMRAM   BANK0   BANK1   BANK2   BANK3   BANK4   BANK5   BANK6   BANK7   BANK8   BANK9  BANK10  BANK1
      +1  BANK12  BANK13  BANK14  BANK15
  6398 ;;      Params:         0       0       0       0       0       0       0       0       0       0       0       0       
      +0       0       0       0       0
  6399 ;;      Locals:         0       0       0       0       0       0       0       0       0       0       0       0       
      +0       0       0       0       0
  6400 ;;      Temps:          0       0       0       0       0       0       0       0       0       0       0       0       
      +0       0       0       0       0
  6401 ;;      Totals:         0       0       0       0       0       0       0       0       0       0       0       0       
      +0       0       0       0       0
  6402 ;;Total ram usage:        0 bytes
  6403 ;; Hardware stack levels used: 1
  6404 ;; This function calls:
  6405 ;;		Nothing
  6406 ;; This function is called by:
  6407 ;;		_InterruptManager
  6408 ;; This function uses a non-reentrant model
  6409 ;;
  6410                           
  6411                           	psect	text28
  6412   00327C                     __ptext28:
  6413                           	callstack 0
  6414   00327C                     _TMR1_ISR:
  6415                           	callstack 25
  6416   00327C                     
  6417                           ;mcal_layer/Timer1/hal_timer1.c: 97:     (PIR1bits.TMR1IF = 0);
  6418   00327C  909E               	bcf	158,0,c	;volatile
  6419   00327E                     
  6420                           ;mcal_layer/Timer1/hal_timer1.c: 98:     TMR1H = (timer1_preload) >> 8;
  6421   00327E  5050               	movf	(_timer1_preload+1)^0,w,c	;volatile
  6422   003280  6ECF               	movwf	207,c	;volatile
  6423   003282                     
  6424                           ;mcal_layer/Timer1/hal_timer1.c: 99:     TMR1L = (uint8)(timer1_preload);
  6425   003282  C04F  FFCE         	movff	_timer1_preload,4046	;volatile
  6426   003286  0012               	return		;funcret
  6427   003288                     __end_of_TMR1_ISR:
  6428                           	callstack 0
  6429                           
  6430 ;; *************** function _TMR0_ISR *****************
  6431 ;; Defined at:
  6432 ;;		line 101 in file "mcal_layer/Timer0/hal_timr0.c"
  6433 ;; Parameters:    Size  Location     Type
  6434 ;;		None
  6435 ;; Auto vars:     Size  Location     Type
  6436 ;;		None
  6437 ;; Return value:  Size  Location     Type
  6438 ;;                  1    wreg      void 
  6439 ;; Registers used:
  6440 ;;		wreg, status,2
  6441 ;; Tracked objects:
  6442 ;;		On entry : 0/0
  6443 ;;		On exit  : 0/0
  6444 ;;		Unchanged: 0/0
  6445 ;; Data sizes:     COMRAM   BANK0   BANK1   BANK2   BANK3   BANK4   BANK5   BANK6   BANK7   BANK8   BANK9  BANK10  BANK1
      +1  BANK12  BANK13  BANK14  BANK15
  6446 ;;      Params:         0       0       0       0       0       0       0       0       0       0       0       0       
      +0       0       0       0       0
  6447 ;;      Locals:         0       0       0       0       0       0       0       0       0       0       0       0       
      +0       0       0       0       0
  6448 ;;      Temps:          0       0       0       0       0       0       0       0       0       0       0       0       
      +0       0       0       0       0
  6449 ;;      Totals:         0       0       0       0       0       0       0       0       0       0       0       0       
      +0       0       0       0       0
  6450 ;;Total ram usage:        0 bytes
  6451 ;; Hardware stack levels used: 1
  6452 ;; This function calls:
  6453 ;;		Nothing
  6454 ;; This function is called by:
  6455 ;;		_InterruptManager
  6456 ;; This function uses a non-reentrant model
  6457 ;;
  6458                           
  6459                           	psect	text29
  6460   003288                     __ptext29:
  6461                           	callstack 0
  6462   003288                     _TMR0_ISR:
  6463                           	callstack 25
  6464   003288                     
  6465                           ;mcal_layer/Timer0/hal_timr0.c: 102:     (INTCONbits.TMR0IF = 0);
  6466   003288  94F2               	bcf	242,2,c	;volatile
  6467   00328A                     
  6468                           ;mcal_layer/Timer0/hal_timr0.c: 103:     TMR0H = (timer0_preload) >> 8;
  6469   00328A  5052               	movf	(_timer0_preload+1)^0,w,c
  6470   00328C  6ED7               	movwf	215,c	;volatile
  6471   00328E                     
  6472                           ;mcal_layer/Timer0/hal_timr0.c: 104:     TMR0L = (uint8)(timer0_preload);
  6473   00328E  C051  FFD6         	movff	_timer0_preload,4054	;volatile
  6474   003292  0012               	return		;funcret
  6475   003294                     __end_of_TMR0_ISR:
  6476                           	callstack 0
  6477                           
  6478 ;; *************** function _RB7_ISR *****************
  6479 ;; Defined at:
  6480 ;;		line 174 in file "interupt/mcal_external_interupt.c"
  6481 ;; Parameters:    Size  Location     Type
  6482 ;;  RB7_Source      1    wreg     unsigned char 
  6483 ;; Auto vars:     Size  Location     Type
  6484 ;;  RB7_Source      1    0[COMRAM] unsigned char 
  6485 ;; Return value:  Size  Location     Type
  6486 ;;                  1    wreg      void 
  6487 ;; Registers used:
  6488 ;;		wreg, status,2, status,0
  6489 ;; Tracked objects:
  6490 ;;		On entry : 0/0
  6491 ;;		On exit  : 0/0
  6492 ;;		Unchanged: 0/0
  6493 ;; Data sizes:     COMRAM   BANK0   BANK1   BANK2   BANK3   BANK4   BANK5   BANK6   BANK7   BANK8   BANK9  BANK10  BANK1
      +1  BANK12  BANK13  BANK14  BANK15
  6494 ;;      Params:         0       0       0       0       0       0       0       0       0       0       0       0       
      +0       0       0       0       0
  6495 ;;      Locals:         1       0       0       0       0       0       0       0       0       0       0       0       
      +0       0       0       0       0
  6496 ;;      Temps:          0       0       0       0       0       0       0       0       0       0       0       0       
      +0       0       0       0       0
  6497 ;;      Totals:         1       0       0       0       0       0       0       0       0       0       0       0       
      +0       0       0       0       0
  6498 ;;Total ram usage:        1 bytes
  6499 ;; Hardware stack levels used: 1
  6500 ;; This function calls:
  6501 ;;		Nothing
  6502 ;; This function is called by:
  6503 ;;		_InterruptManager
  6504 ;; This function uses a non-reentrant model
  6505 ;;
  6506                           
  6507                           	psect	text30
  6508   003208                     __ptext30:
  6509                           	callstack 0
  6510   003208                     _RB7_ISR:
  6511                           	callstack 25
  6512                           
  6513                           ;incstack = 0
  6514                           ;RB7_ISR@RB7_Source stored from wreg
  6515   003208  6E01               	movwf	RB7_ISR@RB7_Source^0,c
  6516   00320A                     
  6517                           ;interupt/mcal_external_interupt.c: 176:     (INTCONbits.RBIF = 0);
  6518   00320A  90F2               	bcf	242,0,c	;volatile
  6519   00320C                     
  6520                           ;interupt/mcal_external_interupt.c: 179:     if(0 == RB7_Source){
  6521   00320C  5001               	movf	RB7_ISR@RB7_Source^0,w,c
  6522   00320E  A4D8               	btfss	status,2,c
  6523   003210  EF0C  F019         	goto	i2u533_41
  6524   003214  EF0E  F019         	goto	i2u533_40
  6525   003218                     i2u533_41:
  6526   003218  EF10  F019         	goto	i2l6329
  6527   00321C                     i2u533_40:
  6528   00321C  EF10  F019         	goto	i2l1092
  6529   003220                     i2l6329:
  6530   003220                     i2l1092:
  6531   003220  0012               	return		;funcret
  6532   003222                     __end_of_RB7_ISR:
  6533                           	callstack 0
  6534                           
  6535 ;; *************** function _RB6_ISR *****************
  6536 ;; Defined at:
  6537 ;;		line 155 in file "interupt/mcal_external_interupt.c"
  6538 ;; Parameters:    Size  Location     Type
  6539 ;;  RB6_Source      1    wreg     unsigned char 
  6540 ;; Auto vars:     Size  Location     Type
  6541 ;;  RB6_Source      1    0[COMRAM] unsigned char 
  6542 ;; Return value:  Size  Location     Type
  6543 ;;                  1    wreg      void 
  6544 ;; Registers used:
  6545 ;;		wreg, status,2, status,0
  6546 ;; Tracked objects:
  6547 ;;		On entry : 0/0
  6548 ;;		On exit  : 0/0
  6549 ;;		Unchanged: 0/0
  6550 ;; Data sizes:     COMRAM   BANK0   BANK1   BANK2   BANK3   BANK4   BANK5   BANK6   BANK7   BANK8   BANK9  BANK10  BANK1
      +1  BANK12  BANK13  BANK14  BANK15
  6551 ;;      Params:         0       0       0       0       0       0       0       0       0       0       0       0       
      +0       0       0       0       0
  6552 ;;      Locals:         1       0       0       0       0       0       0       0       0       0       0       0       
      +0       0       0       0       0
  6553 ;;      Temps:          0       0       0       0       0       0       0       0       0       0       0       0       
      +0       0       0       0       0
  6554 ;;      Totals:         1       0       0       0       0       0       0       0       0       0       0       0       
      +0       0       0       0       0
  6555 ;;Total ram usage:        1 bytes
  6556 ;; Hardware stack levels used: 1
  6557 ;; This function calls:
  6558 ;;		Nothing
  6559 ;; This function is called by:
  6560 ;;		_InterruptManager
  6561 ;; This function uses a non-reentrant model
  6562 ;;
  6563                           
  6564                           	psect	text31
  6565   003222                     __ptext31:
  6566                           	callstack 0
  6567   003222                     _RB6_ISR:
  6568                           	callstack 25
  6569                           
  6570                           ;incstack = 0
  6571                           ;RB6_ISR@RB6_Source stored from wreg
  6572   003222  6E01               	movwf	RB6_ISR@RB6_Source^0,c
  6573   003224                     
  6574                           ;interupt/mcal_external_interupt.c: 157:     (INTCONbits.RBIF = 0);
  6575   003224  90F2               	bcf	242,0,c	;volatile
  6576   003226                     
  6577                           ;interupt/mcal_external_interupt.c: 160:     if(0 == RB6_Source){
  6578   003226  5001               	movf	RB6_ISR@RB6_Source^0,w,c
  6579   003228  A4D8               	btfss	status,2,c
  6580   00322A  EF19  F019         	goto	i2u532_41
  6581   00322E  EF1B  F019         	goto	i2u532_40
  6582   003232                     i2u532_41:
  6583   003232  EF1D  F019         	goto	i2l6315
  6584   003236                     i2u532_40:
  6585   003236  EF1D  F019         	goto	i2l1081
  6586   00323A                     i2l6315:
  6587   00323A                     i2l1081:
  6588   00323A  0012               	return		;funcret
  6589   00323C                     __end_of_RB6_ISR:
  6590                           	callstack 0
  6591                           
  6592 ;; *************** function _RB5_ISR *****************
  6593 ;; Defined at:
  6594 ;;		line 136 in file "interupt/mcal_external_interupt.c"
  6595 ;; Parameters:    Size  Location     Type
  6596 ;;  RB5_Source      1    wreg     unsigned char 
  6597 ;; Auto vars:     Size  Location     Type
  6598 ;;  RB5_Source      1    0[COMRAM] unsigned char 
  6599 ;; Return value:  Size  Location     Type
  6600 ;;                  1    wreg      void 
  6601 ;; Registers used:
  6602 ;;		wreg, status,2, status,0
  6603 ;; Tracked objects:
  6604 ;;		On entry : 0/0
  6605 ;;		On exit  : 0/0
  6606 ;;		Unchanged: 0/0
  6607 ;; Data sizes:     COMRAM   BANK0   BANK1   BANK2   BANK3   BANK4   BANK5   BANK6   BANK7   BANK8   BANK9  BANK10  BANK1
      +1  BANK12  BANK13  BANK14  BANK15
  6608 ;;      Params:         0       0       0       0       0       0       0       0       0       0       0       0       
      +0       0       0       0       0
  6609 ;;      Locals:         1       0       0       0       0       0       0       0       0       0       0       0       
      +0       0       0       0       0
  6610 ;;      Temps:          0       0       0       0       0       0       0       0       0       0       0       0       
      +0       0       0       0       0
  6611 ;;      Totals:         1       0       0       0       0       0       0       0       0       0       0       0       
      +0       0       0       0       0
  6612 ;;Total ram usage:        1 bytes
  6613 ;; Hardware stack levels used: 1
  6614 ;; This function calls:
  6615 ;;		Nothing
  6616 ;; This function is called by:
  6617 ;;		_InterruptManager
  6618 ;; This function uses a non-reentrant model
  6619 ;;
  6620                           
  6621                           	psect	text32
  6622   00323C                     __ptext32:
  6623                           	callstack 0
  6624   00323C                     _RB5_ISR:
  6625                           	callstack 25
  6626                           
  6627                           ;incstack = 0
  6628                           ;RB5_ISR@RB5_Source stored from wreg
  6629   00323C  6E01               	movwf	RB5_ISR@RB5_Source^0,c
  6630   00323E                     
  6631                           ;interupt/mcal_external_interupt.c: 138:     (INTCONbits.RBIF = 0);
  6632   00323E  90F2               	bcf	242,0,c	;volatile
  6633   003240                     
  6634                           ;interupt/mcal_external_interupt.c: 141:     if(0 == RB5_Source){
  6635   003240  5001               	movf	RB5_ISR@RB5_Source^0,w,c
  6636   003242  A4D8               	btfss	status,2,c
  6637   003244  EF26  F019         	goto	i2u531_41
  6638   003248  EF28  F019         	goto	i2u531_40
  6639   00324C                     i2u531_41:
  6640   00324C  EF2A  F019         	goto	i2l6301
  6641   003250                     i2u531_40:
  6642   003250  EF2A  F019         	goto	i2l1070
  6643   003254                     i2l6301:
  6644   003254                     i2l1070:
  6645   003254  0012               	return		;funcret
  6646   003256                     __end_of_RB5_ISR:
  6647                           	callstack 0
  6648                           
  6649 ;; *************** function _RB4_ISR *****************
  6650 ;; Defined at:
  6651 ;;		line 117 in file "interupt/mcal_external_interupt.c"
  6652 ;; Parameters:    Size  Location     Type
  6653 ;;  RB4_Source      1    wreg     unsigned char 
  6654 ;; Auto vars:     Size  Location     Type
  6655 ;;  RB4_Source      1    0[COMRAM] unsigned char 
  6656 ;; Return value:  Size  Location     Type
  6657 ;;                  1    wreg      void 
  6658 ;; Registers used:
  6659 ;;		wreg, status,2, status,0
  6660 ;; Tracked objects:
  6661 ;;		On entry : 0/0
  6662 ;;		On exit  : 0/0
  6663 ;;		Unchanged: 0/0
  6664 ;; Data sizes:     COMRAM   BANK0   BANK1   BANK2   BANK3   BANK4   BANK5   BANK6   BANK7   BANK8   BANK9  BANK10  BANK1
      +1  BANK12  BANK13  BANK14  BANK15
  6665 ;;      Params:         0       0       0       0       0       0       0       0       0       0       0       0       
      +0       0       0       0       0
  6666 ;;      Locals:         1       0       0       0       0       0       0       0       0       0       0       0       
      +0       0       0       0       0
  6667 ;;      Temps:          0       0       0       0       0       0       0       0       0       0       0       0       
      +0       0       0       0       0
  6668 ;;      Totals:         1       0       0       0       0       0       0       0       0       0       0       0       
      +0       0       0       0       0
  6669 ;;Total ram usage:        1 bytes
  6670 ;; Hardware stack levels used: 1
  6671 ;; This function calls:
  6672 ;;		Nothing
  6673 ;; This function is called by:
  6674 ;;		_InterruptManager
  6675 ;; This function uses a non-reentrant model
  6676 ;;
  6677                           
  6678                           	psect	text33
  6679   003256                     __ptext33:
  6680                           	callstack 0
  6681   003256                     _RB4_ISR:
  6682                           	callstack 25
  6683                           
  6684                           ;incstack = 0
  6685                           ;RB4_ISR@RB4_Source stored from wreg
  6686   003256  6E01               	movwf	RB4_ISR@RB4_Source^0,c
  6687   003258                     
  6688                           ;interupt/mcal_external_interupt.c: 119:     (INTCONbits.RBIF = 0);
  6689   003258  90F2               	bcf	242,0,c	;volatile
  6690   00325A                     
  6691                           ;interupt/mcal_external_interupt.c: 122:     if(0 == RB4_Source){
  6692   00325A  5001               	movf	RB4_ISR@RB4_Source^0,w,c
  6693   00325C  A4D8               	btfss	status,2,c
  6694   00325E  EF33  F019         	goto	i2u530_41
  6695   003262  EF35  F019         	goto	i2u530_40
  6696   003266                     i2u530_41:
  6697   003266  EF37  F019         	goto	i2l6287
  6698   00326A                     i2u530_40:
  6699   00326A  EF37  F019         	goto	i2l1059
  6700   00326E                     i2l6287:
  6701   00326E                     i2l1059:
  6702   00326E  0012               	return		;funcret
  6703   003270                     __end_of_RB4_ISR:
  6704                           	callstack 0
  6705                           
  6706 ;; *************** function _MSSP_I2C_ISR *****************
  6707 ;; Defined at:
  6708 ;;		line 225 in file "mcal_layer/I2c/hal_i2c.c"
  6709 ;; Parameters:    Size  Location     Type
  6710 ;;		None
  6711 ;; Auto vars:     Size  Location     Type
  6712 ;;		None
  6713 ;; Return value:  Size  Location     Type
  6714 ;;                  1    wreg      void 
  6715 ;; Registers used:
  6716 ;;		None
  6717 ;; Tracked objects:
  6718 ;;		On entry : 0/0
  6719 ;;		On exit  : 0/0
  6720 ;;		Unchanged: 0/0
  6721 ;; Data sizes:     COMRAM   BANK0   BANK1   BANK2   BANK3   BANK4   BANK5   BANK6   BANK7   BANK8   BANK9  BANK10  BANK1
      +1  BANK12  BANK13  BANK14  BANK15
  6722 ;;      Params:         0       0       0       0       0       0       0       0       0       0       0       0       
      +0       0       0       0       0
  6723 ;;      Locals:         0       0       0       0       0       0       0       0       0       0       0       0       
      +0       0       0       0       0
  6724 ;;      Temps:          0       0       0       0       0       0       0       0       0       0       0       0       
      +0       0       0       0       0
  6725 ;;      Totals:         0       0       0       0       0       0       0       0       0       0       0       0       
      +0       0       0       0       0
  6726 ;;Total ram usage:        0 bytes
  6727 ;; Hardware stack levels used: 1
  6728 ;; This function calls:
  6729 ;;		Nothing
  6730 ;; This function is called by:
  6731 ;;		_InterruptManager
  6732 ;; This function uses a non-reentrant model
  6733 ;;
  6734                           
  6735                           	psect	text34
  6736   0032A6                     __ptext34:
  6737                           	callstack 0
  6738   0032A6                     _MSSP_I2C_ISR:
  6739                           	callstack 25
  6740   0032A6                     
  6741                           ;mcal_layer/I2c/hal_i2c.c: 227:     (PIR1bits.SSPIF = 0);
  6742   0032A6  969E               	bcf	158,3,c	;volatile
  6743   0032A8  0012               	return		;funcret
  6744   0032AA                     __end_of_MSSP_I2C_ISR:
  6745                           	callstack 0
  6746                           
  6747 ;; *************** function _MSSP_I2C_BC_ISR *****************
  6748 ;; Defined at:
  6749 ;;		line 234 in file "mcal_layer/I2c/hal_i2c.c"
  6750 ;; Parameters:    Size  Location     Type
  6751 ;;		None
  6752 ;; Auto vars:     Size  Location     Type
  6753 ;;		None
  6754 ;; Return value:  Size  Location     Type
  6755 ;;                  1    wreg      void 
  6756 ;; Registers used:
  6757 ;;		None
  6758 ;; Tracked objects:
  6759 ;;		On entry : 0/0
  6760 ;;		On exit  : 0/0
  6761 ;;		Unchanged: 0/0
  6762 ;; Data sizes:     COMRAM   BANK0   BANK1   BANK2   BANK3   BANK4   BANK5   BANK6   BANK7   BANK8   BANK9  BANK10  BANK1
      +1  BANK12  BANK13  BANK14  BANK15
  6763 ;;      Params:         0       0       0       0       0       0       0       0       0       0       0       0       
      +0       0       0       0       0
  6764 ;;      Locals:         0       0       0       0       0       0       0       0       0       0       0       0       
      +0       0       0       0       0
  6765 ;;      Temps:          0       0       0       0       0       0       0       0       0       0       0       0       
      +0       0       0       0       0
  6766 ;;      Totals:         0       0       0       0       0       0       0       0       0       0       0       0       
      +0       0       0       0       0
  6767 ;;Total ram usage:        0 bytes
  6768 ;; Hardware stack levels used: 1
  6769 ;; This function calls:
  6770 ;;		Nothing
  6771 ;; This function is called by:
  6772 ;;		_InterruptManager
  6773 ;; This function uses a non-reentrant model
  6774 ;;
  6775                           
  6776                           	psect	text35
  6777   0032AA                     __ptext35:
  6778                           	callstack 0
  6779   0032AA                     _MSSP_I2C_BC_ISR:
  6780                           	callstack 25
  6781   0032AA                     
  6782                           ;mcal_layer/I2c/hal_i2c.c: 236:     (PIR2bits.BCLIF = 0);
  6783   0032AA  96A1               	bcf	161,3,c	;volatile
  6784   0032AC  0012               	return		;funcret
  6785   0032AE                     __end_of_MSSP_I2C_BC_ISR:
  6786                           	callstack 0
  6787                           
  6788 ;; *************** function _INT2_ISR *****************
  6789 ;; Defined at:
  6790 ;;		line 105 in file "interupt/mcal_external_interupt.c"
  6791 ;; Parameters:    Size  Location     Type
  6792 ;;		None
  6793 ;; Auto vars:     Size  Location     Type
  6794 ;;		None
  6795 ;; Return value:  Size  Location     Type
  6796 ;;                  1    wreg      void 
  6797 ;; Registers used:
  6798 ;;		None
  6799 ;; Tracked objects:
  6800 ;;		On entry : 0/0
  6801 ;;		On exit  : 0/0
  6802 ;;		Unchanged: 0/0
  6803 ;; Data sizes:     COMRAM   BANK0   BANK1   BANK2   BANK3   BANK4   BANK5   BANK6   BANK7   BANK8   BANK9  BANK10  BANK1
      +1  BANK12  BANK13  BANK14  BANK15
  6804 ;;      Params:         0       0       0       0       0       0       0       0       0       0       0       0       
      +0       0       0       0       0
  6805 ;;      Locals:         0       0       0       0       0       0       0       0       0       0       0       0       
      +0       0       0       0       0
  6806 ;;      Temps:          0       0       0       0       0       0       0       0       0       0       0       0       
      +0       0       0       0       0
  6807 ;;      Totals:         0       0       0       0       0       0       0       0       0       0       0       0       
      +0       0       0       0       0
  6808 ;;Total ram usage:        0 bytes
  6809 ;; Hardware stack levels used: 1
  6810 ;; This function calls:
  6811 ;;		Nothing
  6812 ;; This function is called by:
  6813 ;;		_InterruptManager
  6814 ;; This function uses a non-reentrant model
  6815 ;;
  6816                           
  6817                           	psect	text36
  6818   0032AE                     __ptext36:
  6819                           	callstack 0
  6820   0032AE                     _INT2_ISR:
  6821                           	callstack 25
  6822   0032AE                     
  6823                           ;interupt/mcal_external_interupt.c: 107:     (INTCON3bits.INT2IF = 0);
  6824   0032AE  92F0               	bcf	240,1,c	;volatile
  6825   0032B0  0012               	return		;funcret
  6826   0032B2                     __end_of_INT2_ISR:
  6827                           	callstack 0
  6828                           
  6829 ;; *************** function _INT1_ISR *****************
  6830 ;; Defined at:
  6831 ;;		line 96 in file "interupt/mcal_external_interupt.c"
  6832 ;; Parameters:    Size  Location     Type
  6833 ;;		None
  6834 ;; Auto vars:     Size  Location     Type
  6835 ;;		None
  6836 ;; Return value:  Size  Location     Type
  6837 ;;                  1    wreg      void 
  6838 ;; Registers used:
  6839 ;;		None
  6840 ;; Tracked objects:
  6841 ;;		On entry : 0/0
  6842 ;;		On exit  : 0/0
  6843 ;;		Unchanged: 0/0
  6844 ;; Data sizes:     COMRAM   BANK0   BANK1   BANK2   BANK3   BANK4   BANK5   BANK6   BANK7   BANK8   BANK9  BANK10  BANK1
      +1  BANK12  BANK13  BANK14  BANK15
  6845 ;;      Params:         0       0       0       0       0       0       0       0       0       0       0       0       
      +0       0       0       0       0
  6846 ;;      Locals:         0       0       0       0       0       0       0       0       0       0       0       0       
      +0       0       0       0       0
  6847 ;;      Temps:          0       0       0       0       0       0       0       0       0       0       0       0       
      +0       0       0       0       0
  6848 ;;      Totals:         0       0       0       0       0       0       0       0       0       0       0       0       
      +0       0       0       0       0
  6849 ;;Total ram usage:        0 bytes
  6850 ;; Hardware stack levels used: 1
  6851 ;; This function calls:
  6852 ;;		Nothing
  6853 ;; This function is called by:
  6854 ;;		_InterruptManager
  6855 ;; This function uses a non-reentrant model
  6856 ;;
  6857                           
  6858                           	psect	text37
  6859   0032B2                     __ptext37:
  6860                           	callstack 0
  6861   0032B2                     _INT1_ISR:
  6862                           	callstack 25
  6863   0032B2                     
  6864                           ;interupt/mcal_external_interupt.c: 98:     (INTCON3bits.INT1IF = 0);
  6865   0032B2  90F0               	bcf	240,0,c	;volatile
  6866   0032B4  0012               	return		;funcret
  6867   0032B6                     __end_of_INT1_ISR:
  6868                           	callstack 0
  6869                           
  6870 ;; *************** function _INT0_ISR *****************
  6871 ;; Defined at:
  6872 ;;		line 84 in file "interupt/mcal_external_interupt.c"
  6873 ;; Parameters:    Size  Location     Type
  6874 ;;		None
  6875 ;; Auto vars:     Size  Location     Type
  6876 ;;		None
  6877 ;; Return value:  Size  Location     Type
  6878 ;;                  1    wreg      void 
  6879 ;; Registers used:
  6880 ;;		None
  6881 ;; Tracked objects:
  6882 ;;		On entry : 0/0
  6883 ;;		On exit  : 0/0
  6884 ;;		Unchanged: 0/0
  6885 ;; Data sizes:     COMRAM   BANK0   BANK1   BANK2   BANK3   BANK4   BANK5   BANK6   BANK7   BANK8   BANK9  BANK10  BANK1
      +1  BANK12  BANK13  BANK14  BANK15
  6886 ;;      Params:         0       0       0       0       0       0       0       0       0       0       0       0       
      +0       0       0       0       0
  6887 ;;      Locals:         0       0       0       0       0       0       0       0       0       0       0       0       
      +0       0       0       0       0
  6888 ;;      Temps:          0       0       0       0       0       0       0       0       0       0       0       0       
      +0       0       0       0       0
  6889 ;;      Totals:         0       0       0       0       0       0       0       0       0       0       0       0       
      +0       0       0       0       0
  6890 ;;Total ram usage:        0 bytes
  6891 ;; Hardware stack levels used: 1
  6892 ;; This function calls:
  6893 ;;		Nothing
  6894 ;; This function is called by:
  6895 ;;		_InterruptManager
  6896 ;; This function uses a non-reentrant model
  6897 ;;
  6898                           
  6899                           	psect	text38
  6900   0032B6                     __ptext38:
  6901                           	callstack 0
  6902   0032B6                     _INT0_ISR:
  6903                           	callstack 25
  6904   0032B6                     
  6905                           ;interupt/mcal_external_interupt.c: 86:     (INTCONbits.INT0IF = 0);
  6906   0032B6  92F2               	bcf	242,1,c	;volatile
  6907   0032B8  0012               	return		;funcret
  6908   0032BA                     __end_of_INT0_ISR:
  6909                           	callstack 0
  6910                           
  6911 ;; *************** function _EUSART_TX_ISR *****************
  6912 ;; Defined at:
  6913 ;;		line 238 in file "mcal_layer/usart/hal_usart.c"
  6914 ;; Parameters:    Size  Location     Type
  6915 ;;		None
  6916 ;; Auto vars:     Size  Location     Type
  6917 ;;		None
  6918 ;; Return value:  Size  Location     Type
  6919 ;;                  1    wreg      void 
  6920 ;; Registers used:
  6921 ;;		None
  6922 ;; Tracked objects:
  6923 ;;		On entry : 0/0
  6924 ;;		On exit  : 0/0
  6925 ;;		Unchanged: 0/0
  6926 ;; Data sizes:     COMRAM   BANK0   BANK1   BANK2   BANK3   BANK4   BANK5   BANK6   BANK7   BANK8   BANK9  BANK10  BANK1
      +1  BANK12  BANK13  BANK14  BANK15
  6927 ;;      Params:         0       0       0       0       0       0       0       0       0       0       0       0       
      +0       0       0       0       0
  6928 ;;      Locals:         0       0       0       0       0       0       0       0       0       0       0       0       
      +0       0       0       0       0
  6929 ;;      Temps:          0       0       0       0       0       0       0       0       0       0       0       0       
      +0       0       0       0       0
  6930 ;;      Totals:         0       0       0       0       0       0       0       0       0       0       0       0       
      +0       0       0       0       0
  6931 ;;Total ram usage:        0 bytes
  6932 ;; Hardware stack levels used: 1
  6933 ;; This function calls:
  6934 ;;		Nothing
  6935 ;; This function is called by:
  6936 ;;		_InterruptManager
  6937 ;; This function uses a non-reentrant model
  6938 ;;
  6939                           
  6940                           	psect	text39
  6941   0032BA                     __ptext39:
  6942                           	callstack 0
  6943   0032BA                     _EUSART_TX_ISR:
  6944                           	callstack 25
  6945   0032BA                     
  6946                           ;mcal_layer/usart/hal_usart.c: 239:     (PIE1bits.TXIE = 0);
  6947   0032BA  989D               	bcf	157,4,c	;volatile
  6948   0032BC  0012               	return		;funcret
  6949   0032BE                     __end_of_EUSART_TX_ISR:
  6950                           	callstack 0
  6951                           
  6952 ;; *************** function _EUSART_RX_ISR *****************
  6953 ;; Defined at:
  6954 ;;		line 245 in file "mcal_layer/usart/hal_usart.c"
  6955 ;; Parameters:    Size  Location     Type
  6956 ;;		None
  6957 ;; Auto vars:     Size  Location     Type
  6958 ;;		None
  6959 ;; Return value:  Size  Location     Type
  6960 ;;                  1    wreg      void 
  6961 ;; Registers used:
  6962 ;;		wreg, status,2, status,0
  6963 ;; Tracked objects:
  6964 ;;		On entry : 0/0
  6965 ;;		On exit  : 0/0
  6966 ;;		Unchanged: 0/0
  6967 ;; Data sizes:     COMRAM   BANK0   BANK1   BANK2   BANK3   BANK4   BANK5   BANK6   BANK7   BANK8   BANK9  BANK10  BANK1
      +1  BANK12  BANK13  BANK14  BANK15
  6968 ;;      Params:         0       0       0       0       0       0       0       0       0       0       0       0       
      +0       0       0       0       0
  6969 ;;      Locals:         0       0       0       0       0       0       0       0       0       0       0       0       
      +0       0       0       0       0
  6970 ;;      Temps:          0       0       0       0       0       0       0       0       0       0       0       0       
      +0       0       0       0       0
  6971 ;;      Totals:         0       0       0       0       0       0       0       0       0       0       0       0       
      +0       0       0       0       0
  6972 ;;Total ram usage:        0 bytes
  6973 ;; Hardware stack levels used: 1
  6974 ;; This function calls:
  6975 ;;		Nothing
  6976 ;; This function is called by:
  6977 ;;		_InterruptManager
  6978 ;; This function uses a non-reentrant model
  6979 ;;
  6980                           
  6981                           	psect	text40
  6982   0032CA                     __ptext40:
  6983                           	callstack 0
  6984   0032CA                     _EUSART_RX_ISR:
  6985                           	callstack 25
  6986   0032CA  0012               	return		;funcret
  6987   0032CC                     __end_of_EUSART_RX_ISR:
  6988                           	callstack 0
  6989                           
  6990 ;; *************** function _CCP2_ISR *****************
  6991 ;; Defined at:
  6992 ;;		line 253 in file "mcal_layer/CCP/hal_ccp.c"
  6993 ;; Parameters:    Size  Location     Type
  6994 ;;		None
  6995 ;; Auto vars:     Size  Location     Type
  6996 ;;		None
  6997 ;; Return value:  Size  Location     Type
  6998 ;;                  1    wreg      void 
  6999 ;; Registers used:
  7000 ;;		None
  7001 ;; Tracked objects:
  7002 ;;		On entry : 0/0
  7003 ;;		On exit  : 0/0
  7004 ;;		Unchanged: 0/0
  7005 ;; Data sizes:     COMRAM   BANK0   BANK1   BANK2   BANK3   BANK4   BANK5   BANK6   BANK7   BANK8   BANK9  BANK10  BANK1
      +1  BANK12  BANK13  BANK14  BANK15
  7006 ;;      Params:         0       0       0       0       0       0       0       0       0       0       0       0       
      +0       0       0       0       0
  7007 ;;      Locals:         0       0       0       0       0       0       0       0       0       0       0       0       
      +0       0       0       0       0
  7008 ;;      Temps:          0       0       0       0       0       0       0       0       0       0       0       0       
      +0       0       0       0       0
  7009 ;;      Totals:         0       0       0       0       0       0       0       0       0       0       0       0       
      +0       0       0       0       0
  7010 ;;Total ram usage:        0 bytes
  7011 ;; Hardware stack levels used: 1
  7012 ;; This function calls:
  7013 ;;		Nothing
  7014 ;; This function is called by:
  7015 ;;		_InterruptManager
  7016 ;; This function uses a non-reentrant model
  7017 ;;
  7018                           
  7019                           	psect	text41
  7020   0032BE                     __ptext41:
  7021                           	callstack 0
  7022   0032BE                     _CCP2_ISR:
  7023                           	callstack 25
  7024   0032BE                     
  7025                           ;mcal_layer/CCP/hal_ccp.c: 254:     (PIR2bits.CCP2IF = 0);
  7026   0032BE  90A1               	bcf	161,0,c	;volatile
  7027   0032C0  0012               	return		;funcret
  7028   0032C2                     __end_of_CCP2_ISR:
  7029                           	callstack 0
  7030                           
  7031 ;; *************** function _CCP1_ISR *****************
  7032 ;; Defined at:
  7033 ;;		line 245 in file "mcal_layer/CCP/hal_ccp.c"
  7034 ;; Parameters:    Size  Location     Type
  7035 ;;		None
  7036 ;; Auto vars:     Size  Location     Type
  7037 ;;		None
  7038 ;; Return value:  Size  Location     Type
  7039 ;;                  1    wreg      void 
  7040 ;; Registers used:
  7041 ;;		None
  7042 ;; Tracked objects:
  7043 ;;		On entry : 0/0
  7044 ;;		On exit  : 0/0
  7045 ;;		Unchanged: 0/0
  7046 ;; Data sizes:     COMRAM   BANK0   BANK1   BANK2   BANK3   BANK4   BANK5   BANK6   BANK7   BANK8   BANK9  BANK10  BANK1
      +1  BANK12  BANK13  BANK14  BANK15
  7047 ;;      Params:         0       0       0       0       0       0       0       0       0       0       0       0       
      +0       0       0       0       0
  7048 ;;      Locals:         0       0       0       0       0       0       0       0       0       0       0       0       
      +0       0       0       0       0
  7049 ;;      Temps:          0       0       0       0       0       0       0       0       0       0       0       0       
      +0       0       0       0       0
  7050 ;;      Totals:         0       0       0       0       0       0       0       0       0       0       0       0       
      +0       0       0       0       0
  7051 ;;Total ram usage:        0 bytes
  7052 ;; Hardware stack levels used: 1
  7053 ;; This function calls:
  7054 ;;		Nothing
  7055 ;; This function is called by:
  7056 ;;		_InterruptManager
  7057 ;; This function uses a non-reentrant model
  7058 ;;
  7059                           
  7060                           	psect	text42
  7061   0032C2                     __ptext42:
  7062                           	callstack 0
  7063   0032C2                     _CCP1_ISR:
  7064                           	callstack 25
  7065   0032C2                     
  7066                           ;mcal_layer/CCP/hal_ccp.c: 246:     (PIR1bits.CCP1IF = 0);
  7067   0032C2  949E               	bcf	158,2,c	;volatile
  7068   0032C4  0012               	return		;funcret
  7069   0032C6                     __end_of_CCP1_ISR:
  7070                           	callstack 0
  7071                           
  7072 ;; *************** function _ADC_ISR *****************
  7073 ;; Defined at:
  7074 ;;		line 289 in file "mcal_layer/ADC/hal_adc.c"
  7075 ;; Parameters:    Size  Location     Type
  7076 ;;		None
  7077 ;; Auto vars:     Size  Location     Type
  7078 ;;		None
  7079 ;; Return value:  Size  Location     Type
  7080 ;;                  1    wreg      void 
  7081 ;; Registers used:
  7082 ;;		None
  7083 ;; Tracked objects:
  7084 ;;		On entry : 0/0
  7085 ;;		On exit  : 0/0
  7086 ;;		Unchanged: 0/0
  7087 ;; Data sizes:     COMRAM   BANK0   BANK1   BANK2   BANK3   BANK4   BANK5   BANK6   BANK7   BANK8   BANK9  BANK10  BANK1
      +1  BANK12  BANK13  BANK14  BANK15
  7088 ;;      Params:         0       0       0       0       0       0       0       0       0       0       0       0       
      +0       0       0       0       0
  7089 ;;      Locals:         0       0       0       0       0       0       0       0       0       0       0       0       
      +0       0       0       0       0
  7090 ;;      Temps:          0       0       0       0       0       0       0       0       0       0       0       0       
      +0       0       0       0       0
  7091 ;;      Totals:         0       0       0       0       0       0       0       0       0       0       0       0       
      +0       0       0       0       0
  7092 ;;Total ram usage:        0 bytes
  7093 ;; Hardware stack levels used: 1
  7094 ;; This function calls:
  7095 ;;		Nothing
  7096 ;; This function is called by:
  7097 ;;		_InterruptManager
  7098 ;; This function uses a non-reentrant model
  7099 ;;
  7100                           
  7101                           	psect	text43
  7102   0032C6                     __ptext43:
  7103                           	callstack 0
  7104   0032C6                     _ADC_ISR:
  7105                           	callstack 25
  7106   0032C6                     
  7107                           ;mcal_layer/ADC/hal_adc.c: 290:     (PIR1bits.ADIF = 0);
  7108   0032C6  9C9E               	bcf	158,6,c	;volatile
  7109   0032C8  0012               	return		;funcret
  7110   0032CA                     __end_of_ADC_ISR:
  7111                           	callstack 0
  7112                           
  7113                           	psect	rparam
  7114   000000                     
  7115                           	psect	temp
  7116   00007E                     btemp:
  7117                           	callstack 0
  7118   00007E                     	ds	1
  7119   000000                     int$flags	set	btemp
  7120   000000                     wtemp8	set	btemp+1
  7121   000000                     ttemp5	set	btemp+1
  7122   000000                     ttemp6	set	btemp+4
  7123   000000                     ttemp7	set	btemp+8
  7124                           
  7125                           	psect	idloc
  7126                           
  7127                           ;Config register IDLOC0 @ 0x200000
  7128                           ;	unspecified, using default values
  7129   200000                     	org	2097152
  7130   200000  FF                 	db	255
  7131                           
  7132                           ;Config register IDLOC1 @ 0x200001
  7133                           ;	unspecified, using default values
  7134   200001                     	org	2097153
  7135   200001  FF                 	db	255
  7136                           
  7137                           ;Config register IDLOC2 @ 0x200002
  7138                           ;	unspecified, using default values
  7139   200002                     	org	2097154
  7140   200002  FF                 	db	255
  7141                           
  7142                           ;Config register IDLOC3 @ 0x200003
  7143                           ;	unspecified, using default values
  7144   200003                     	org	2097155
  7145   200003  FF                 	db	255
  7146                           
  7147                           ;Config register IDLOC4 @ 0x200004
  7148                           ;	unspecified, using default values
  7149   200004                     	org	2097156
  7150   200004  FF                 	db	255
  7151                           
  7152                           ;Config register IDLOC5 @ 0x200005
  7153                           ;	unspecified, using default values
  7154   200005                     	org	2097157
  7155   200005  FF                 	db	255
  7156                           
  7157                           ;Config register IDLOC6 @ 0x200006
  7158                           ;	unspecified, using default values
  7159   200006                     	org	2097158
  7160   200006  FF                 	db	255
  7161                           
  7162                           ;Config register IDLOC7 @ 0x200007
  7163                           ;	unspecified, using default values
  7164   200007                     	org	2097159
  7165   200007  FF                 	db	255
  7166                           
  7167                           	psect	config
  7168                           
  7169                           ; Padding undefined space
  7170   300000                     	org	3145728
  7171   300000  FF                 	db	255
  7172                           
  7173                           ;Config register CONFIG1H @ 0x300001
  7174                           ;	Oscillator Selection bits
  7175                           ;	OSC = HS, HS oscillator
  7176                           ;	Fail-Safe Clock Monitor Enable bit
  7177                           ;	FCMEN = OFF, Fail-Safe Clock Monitor disabled
  7178                           ;	Internal/External Oscillator Switchover bit
  7179                           ;	IESO = OFF, Oscillator Switchover mode disabled
  7180   300001                     	org	3145729
  7181   300001  02                 	db	2
  7182                           
  7183                           ;Config register CONFIG2L @ 0x300002
  7184                           ;	Power-up Timer Enable bit
  7185                           ;	PWRT = OFF, PWRT disabled
  7186                           ;	Brown-out Reset Enable bits
  7187                           ;	BOREN = OFF, Brown-out Reset disabled in hardware and software
  7188                           ;	Brown Out Reset Voltage bits
  7189                           ;	BORV = 1, 
  7190   300002                     	org	3145730
  7191   300002  09                 	db	9
  7192                           
  7193                           ;Config register CONFIG2H @ 0x300003
  7194                           ;	Watchdog Timer Enable bit
  7195                           ;	WDT = OFF, WDT disabled (control is placed on the SWDTEN bit)
  7196                           ;	Watchdog Timer Postscale Select bits
  7197                           ;	WDTPS = 32768, 1:32768
  7198   300003                     	org	3145731
  7199   300003  1E                 	db	30
  7200                           
  7201                           ; Padding undefined space
  7202   300004                     	org	3145732
  7203   300004  FF                 	db	255
  7204                           
  7205                           ;Config register CONFIG3H @ 0x300005
  7206                           ;	CCP2 MUX bit
  7207                           ;	CCP2MX = PORTC, CCP2 input/output is multiplexed with RC1
  7208                           ;	PORTB A/D Enable bit
  7209                           ;	PBADEN = OFF, PORTB<4:0> pins are configured as digital I/O on Reset
  7210                           ;	Low-Power Timer1 Oscillator Enable bit
  7211                           ;	LPT1OSC = OFF, Timer1 configured for higher power operation
  7212                           ;	MCLR Pin Enable bit
  7213                           ;	MCLRE = ON, MCLR pin enabled; RE3 input pin disabled
  7214   300005                     	org	3145733
  7215   300005  81                 	db	129
  7216                           
  7217                           ;Config register CONFIG4L @ 0x300006
  7218                           ;	Stack Full/Underflow Reset Enable bit
  7219                           ;	STVREN = ON, Stack full/underflow will cause Reset
  7220                           ;	Single-Supply ICSP Enable bit
  7221                           ;	LVP = OFF, Single-Supply ICSP disabled
  7222                           ;	Extended Instruction Set Enable bit
  7223                           ;	XINST = OFF, Instruction set extension and Indexed Addressing mode disabled (Legacy mo
      +                          de)
  7224                           ;	Background Debugger Enable bit
  7225                           ;	DEBUG = 0x1, unprogrammed default
  7226   300006                     	org	3145734
  7227   300006  81                 	db	129
  7228                           
  7229                           ; Padding undefined space
  7230   300007                     	org	3145735
  7231   300007  FF                 	db	255
  7232                           
  7233                           ;Config register CONFIG5L @ 0x300008
  7234                           ;	Code Protection bit
  7235                           ;	CP0 = OFF, Block 0 (000800-003FFFh) not code-protected
  7236                           ;	Code Protection bit
  7237                           ;	CP1 = OFF, Block 1 (004000-007FFFh) not code-protected
  7238                           ;	Code Protection bit
  7239                           ;	CP2 = OFF, Block 2 (008000-00BFFFh) not code-protected
  7240                           ;	Code Protection bit
  7241                           ;	CP3 = OFF, Block 3 (00C000-00FFFFh) not code-protected
  7242   300008                     	org	3145736
  7243   300008  0F                 	db	15
  7244                           
  7245                           ;Config register CONFIG5H @ 0x300009
  7246                           ;	Boot Block Code Protection bit
  7247                           ;	CPB = OFF, Boot block (000000-0007FFh) not code-protected
  7248                           ;	Data EEPROM Code Protection bit
  7249                           ;	CPD = OFF, Data EEPROM not code-protected
  7250   300009                     	org	3145737
  7251   300009  C0                 	db	192
  7252                           
  7253                           ;Config register CONFIG6L @ 0x30000A
  7254                           ;	Write Protection bit
  7255                           ;	WRT0 = OFF, Block 0 (000800-003FFFh) not write-protected
  7256                           ;	Write Protection bit
  7257                           ;	WRT1 = OFF, Block 1 (004000-007FFFh) not write-protected
  7258                           ;	Write Protection bit
  7259                           ;	WRT2 = OFF, Block 2 (008000-00BFFFh) not write-protected
  7260                           ;	Write Protection bit
  7261                           ;	WRT3 = OFF, Block 3 (00C000-00FFFFh) not write-protected
  7262   30000A                     	org	3145738
  7263   30000A  0F                 	db	15
  7264                           
  7265                           ;Config register CONFIG6H @ 0x30000B
  7266                           ;	Configuration Register Write Protection bit
  7267                           ;	WRTC = OFF, Configuration registers (300000-3000FFh) not write-protected
  7268                           ;	Boot Block Write Protection bit
  7269                           ;	WRTB = OFF, Boot Block (000000-0007FFh) not write-protected
  7270                           ;	Data EEPROM Write Protection bit
  7271                           ;	WRTD = OFF, Data EEPROM not write-protected
  7272   30000B                     	org	3145739
  7273   30000B  E0                 	db	224
  7274                           
  7275                           ;Config register CONFIG7L @ 0x30000C
  7276                           ;	Table Read Protection bit
  7277                           ;	EBTR0 = OFF, Block 0 (000800-003FFFh) not protected from table reads executed in other
      +                           blocks
  7278                           ;	Table Read Protection bit
  7279                           ;	EBTR1 = OFF, Block 1 (004000-007FFFh) not protected from table reads executed in other
      +                           blocks
  7280                           ;	Table Read Protection bit
  7281                           ;	EBTR2 = OFF, Block 2 (008000-00BFFFh) not protected from table reads executed in other
      +                           blocks
  7282                           ;	Table Read Protection bit
  7283                           ;	EBTR3 = OFF, Block 3 (00C000-00FFFFh) not protected from table reads executed in other
      +                           blocks
  7284   30000C                     	org	3145740
  7285   30000C  0F                 	db	15
  7286                           
  7287                           ;Config register CONFIG7H @ 0x30000D
  7288                           ;	Boot Block Table Read Protection bit
  7289                           ;	EBTRB = OFF, Boot Block (000000-0007FFh) not protected from table reads executed in ot
      +                          her blocks
  7290   30000D                     	org	3145741
  7291   30000D  40                 	db	64
  7292                           tosu	equ	0xFFF
  7293                           tosh	equ	0xFFE
  7294                           tosl	equ	0xFFD
  7295                           stkptr	equ	0xFFC
  7296                           pclatu	equ	0xFFB
  7297                           pclath	equ	0xFFA
  7298                           pcl	equ	0xFF9
  7299                           tblptru	equ	0xFF8
  7300                           tblptrh	equ	0xFF7
  7301                           tblptrl	equ	0xFF6
  7302                           tablat	equ	0xFF5
  7303                           prodh	equ	0xFF4
  7304                           prodl	equ	0xFF3
  7305                           indf0	equ	0xFEF
  7306                           postinc0	equ	0xFEE
  7307                           postdec0	equ	0xFED
  7308                           preinc0	equ	0xFEC
  7309                           plusw0	equ	0xFEB
  7310                           fsr0h	equ	0xFEA
  7311                           fsr0l	equ	0xFE9
  7312                           wreg	equ	0xFE8
  7313                           indf1	equ	0xFE7
  7314                           postinc1	equ	0xFE6
  7315                           postdec1	equ	0xFE5
  7316                           preinc1	equ	0xFE4
  7317                           plusw1	equ	0xFE3
  7318                           fsr1h	equ	0xFE2
  7319                           fsr1l	equ	0xFE1
  7320                           bsr	equ	0xFE0
  7321                           indf2	equ	0xFDF
  7322                           postinc2	equ	0xFDE
  7323                           postdec2	equ	0xFDD
  7324                           preinc2	equ	0xFDC
  7325                           plusw2	equ	0xFDB
  7326                           fsr2h	equ	0xFDA
  7327                           fsr2l	equ	0xFD9
  7328                           status	equ	0xFD8

Data Sizes:
    Strings     95
    Constant    16
    Data        75
    BSS         76
    Persistent  0
    Stack       0

Auto Spaces:
    Space          Size  Autos    Used
    COMRAM          126     76     125
    BANK0           128      0     102
    BANK1           256      0       0
    BANK2           256      0       0
    BANK3           256      0       0
    BANK4           256      0       0
    BANK5           256      0       0
    BANK6           256      0       0
    BANK7           256      0       0
    BANK8           256      0       0
    BANK9           256      0       0
    BANK10          256      0       0
    BANK11          256      0       0
    BANK12          256      0       0
    BANK13          256      0       0
    BANK14          256      0       0
    BANK15          128      0       0

Pointer List with Targets:

    vfprintf$2	PTR PTR void  size(2) Largest target is 2
		 -> sprintf@ap(COMRAM[2]), 

    vfprintf$1	PTR const unsigned char  size(2) Largest target is 3
		 -> STR_1(CODE[3]), 

    vfprintf$0	PTR struct _IO_FILE size(2) Largest target is 12
		 -> sprintf@f(COMRAM[12]), 

    S4658$source	PTR const unsigned char  size(2) Largest target is 0

    f...source	PTR const unsigned char  size(2) Largest target is 0

    S4658$buffer	PTR unsigned char  size(2) Largest target is 0

    f...buffer	PTR unsigned char  size(2) Largest target is 0

    x.EUSART_OverrunErrorHandler	PTR FTN()void  size(2) Largest target is 1
		 -> NULL(), 

    x.EUSART_FramingErrorHandler	PTR FTN()void  size(2) Largest target is 1
		 -> NULL(), 

    x.EUSART_RxDefaultInterruptHandler	PTR FTN()void  size(2) Largest target is 1
		 -> NULL(), 

    x.EUSART_TxDefaultInterruptHandler	PTR FTN()void  size(2) Largest target is 1
		 -> NULL(), 

    EUSART_OverrunErrorHandler	PTR FTN()void  size(2) Largest target is 1
		 -> NULL(), 

    EUSART_FramingErrorHandler	PTR FTN()void  size(2) Largest target is 1
		 -> NULL(), 

    EUSART_RxInterruptHandler	PTR FTN()void  size(2) Largest target is 1
		 -> NULL(), 

    EUSART_ASYNC_RX_Init@_eusart.EUSART_OverrunErrorHandler	PTR FTN()void  size(2) Largest target is 1
		 -> NULL(), 

    EUSART_ASYNC_RX_Init@_eusart.EUSART_FramingErrorHandler	PTR FTN()void  size(2) Largest target is 1
		 -> NULL(), 

    EUSART_ASYNC_RX_Init@_eusart.EUSART_RxDefaultInterruptHandler	PTR FTN()void  size(2) Largest target is 1
		 -> NULL(), 

    EUSART_ASYNC_RX_Init@_eusart.EUSART_TxDefaultInterruptHandler	PTR FTN()void  size(2) Largest target is 1
		 -> NULL(), 

    EUSART_ASYNC_RX_Init@_eusart	PTR const struct . size(2) Largest target is 16
		 -> x(BANK0[16]), 

    EUSART_TxInterruptHandler	PTR FTN()void  size(2) Largest target is 1
		 -> NULL(), 

    EUSART_ASYNC_TX_Init@_eusart.EUSART_OverrunErrorHandler	PTR FTN()void  size(2) Largest target is 1
		 -> NULL(), 

    EUSART_ASYNC_TX_Init@_eusart.EUSART_FramingErrorHandler	PTR FTN()void  size(2) Largest target is 1
		 -> NULL(), 

    EUSART_ASYNC_TX_Init@_eusart.EUSART_RxDefaultInterruptHandler	PTR FTN()void  size(2) Largest target is 1
		 -> NULL(), 

    EUSART_ASYNC_TX_Init@_eusart.EUSART_TxDefaultInterruptHandler	PTR FTN()void  size(2) Largest target is 1
		 -> NULL(), 

    EUSART_ASYNC_TX_Init@_eusart	PTR const struct . size(2) Largest target is 16
		 -> x(BANK0[16]), 

    S3642$EUSART_OverrunErrorHandler	PTR FTN()void  size(2) Largest target is 1
		 -> NULL(), 

    EUSART_Baud_Rate_Calculation@_eusart.EUSART_OverrunErrorHandler	PTR FTN()void  size(2) Largest target is 1
		 -> NULL(), 

    S3642$EUSART_FramingErrorHandler	PTR FTN()void  size(2) Largest target is 1
		 -> NULL(), 

    EUSART_Baud_Rate_Calculation@_eusart.EUSART_FramingErrorHandler	PTR FTN()void  size(2) Largest target is 1
		 -> NULL(), 

    S3642$EUSART_RxDefaultInterruptHandler	PTR FTN()void  size(2) Largest target is 1
		 -> NULL(), 

    EUSART_Baud_Rate_Calculation@_eusart.EUSART_RxDefaultInterruptHandler	PTR FTN()void  size(2) Largest target is 1
		 -> NULL(), 

    S3642$EUSART_TxDefaultInterruptHandler	PTR FTN()void  size(2) Largest target is 1
		 -> NULL(), 

    EUSART_Baud_Rate_Calculation@_eusart.EUSART_TxDefaultInterruptHandler	PTR FTN()void  size(2) Largest target is 1
		 -> NULL(), 

    EUSART_Baud_Rate_Calculation@_eusart	PTR const struct . size(2) Largest target is 16
		 -> x(BANK0[16]), 

    EUSART_ASYNC_WriteStringBlocking@_data	PTR unsigned char  size(2) Largest target is 13
		 -> STR_9(CODE[13]), STR_8(CODE[11]), STR_7(CODE[13]), STR_6(CODE[11]), 
		 -> STR_5(CODE[12]), STR_4(CODE[10]), STR_3(CODE[12]), STR_2(CODE[10]), 

    EUSART_ASYNC_ReadByteBlocking@_data	PTR unsigned char  size(2) Largest target is 1
		 -> c(COMRAM[1]), 

    EUSART_ASYNC_Init@_eusart	PTR const struct . size(2) Largest target is 16
		 -> x(BANK0[16]), 

    Timer3_Mode_Select@_timer.TMR3_InterruptHandler	PTR FTN()void  size(2) Largest target is 0

    TMR3_InterruptHandler	PTR FTN()void  size(2) Largest target is 1
		 -> NULL(), 

    S3448$TMR3_InterruptHandler	PTR FTN()void  size(2) Largest target is 0

    Timer3_Init@_timer.TMR3_InterruptHandler	PTR FTN()void  size(2) Largest target is 0

    TMR2_InterruptHandler	PTR FTN()void  size(2) Largest target is 1
		 -> NULL(), 

    S3319$TMR2_InterruptHandler	PTR FTN()void  size(2) Largest target is 0

    Timer2_Init@_timer.TMR2_InterruptHandler	PTR FTN()void  size(2) Largest target is 0

    Timer1_Mode_Select@_timer.TMR1_InterruptHandler	PTR FTN()void  size(2) Largest target is 0

    TMR1_InterruptHandler	PTR FTN()volatile void  size(2) Largest target is 1
		 -> NULL(), 

    S3129$TMR1_InterruptHandler	PTR FTN()void  size(2) Largest target is 0

    Timer1_Init@_timer.TMR1_InterruptHandler	PTR FTN()void  size(2) Largest target is 0

    Timer0_Register_Size_Config@_timer.TMR0_InterruptHandler	PTR FTN()void  size(2) Largest target is 0

    Timer0_Mode_Select@_timer.TMR0_InterruptHandler	PTR FTN()void  size(2) Largest target is 0

    Timer0_Prescaler_Config@_timer.TMR0_InterruptHandler	PTR FTN()void  size(2) Largest target is 0

    TMR0_InterruptHandler	PTR FTN()void  size(2) Largest target is 1
		 -> NULL(), 

    S2964$TMR0_InterruptHandler	PTR FTN()void  size(2) Largest target is 0

    Timer0_Init@_timer.TMR0_InterruptHandler	PTR FTN()void  size(2) Largest target is 0

    Interrupt_INTx_SetInterruptHandler@int_obj.EXT_InterruptHandler	PTR FTN()void  size(2) Largest target is 0

    Interrupt_INTx_Clear_Flag@int_obj.EXT_InterruptHandler	PTR FTN()void  size(2) Largest target is 0

    Interrupt_INTx_Pin_Init@int_obj.EXT_InterruptHandler	PTR FTN()void  size(2) Largest target is 0

    Interrupt_INTx_Edge_Init@int_obj.EXT_InterruptHandler	PTR FTN()void  size(2) Largest target is 0

    Interrupt_INTx_Disable@int_obj.EXT_InterruptHandler	PTR FTN()void  size(2) Largest target is 0

    S2647$EXT_InterruptHandler	PTR FTN()void  size(2) Largest target is 0

    Interrupt_INTx_Enable@int_obj.EXT_InterruptHandler	PTR FTN()void  size(2) Largest target is 0

    S2745$EXT_InterruptHandler_LOW	PTR FTN()void  size(2) Largest target is 0

    Interrupt_RBx_Init@int_obj.EXT_InterruptHandler_LOW	PTR FTN()void  size(2) Largest target is 0

    S2745$EXT_InterruptHandler_HIGH	PTR FTN()void  size(2) Largest target is 0

    Interrupt_RBx_Init@int_obj.EXT_InterruptHandler_HIGH	PTR FTN()void  size(2) Largest target is 0

    RB7_InterruptHandler_LOW	PTR FTN()void  size(2) Largest target is 1
		 -> NULL(), 

    RB7_InterruptHandler_HIGH	PTR FTN()void  size(2) Largest target is 1
		 -> NULL(), 

    RB6_InterruptHandler_LOW	PTR FTN()void  size(2) Largest target is 1
		 -> NULL(), 

    RB6_InterruptHandler_HIGH	PTR FTN()void  size(2) Largest target is 1
		 -> NULL(), 

    RB5_InterruptHandler_LOW	PTR FTN()void  size(2) Largest target is 1
		 -> NULL(), 

    RB5_InterruptHandler_HIGH	PTR FTN()void  size(2) Largest target is 1
		 -> NULL(), 

    RB4_InterruptHandler_LOW	PTR FTN()void  size(2) Largest target is 1
		 -> NULL(), 

    RB4_InterruptHandler_HIGH	PTR FTN()void  size(2) Largest target is 1
		 -> NULL(), 

    INT2_InterruptHandler	PTR FTN()void  size(2) Largest target is 1
		 -> NULL(), 

    INT1_InterruptHandler	PTR FTN()void  size(2) Largest target is 1
		 -> NULL(), 

    INT0_InterruptHandler	PTR FTN()void  size(2) Largest target is 1
		 -> NULL(), 

    I2C_Report_Receive_Overflow_InterruptHandle	PTR FTN()void  size(2) Largest target is 1
		 -> NULL(), 

    MSSP_I2C_Interrupt_Configurations@i2c_obj.I2C_Report_Receive_Overflow	PTR FTN()void  size(2) Largest target is 0

    MSSP_I2C_Interrupt_Configurations@i2c_obj.I2C_DefaultInterruptHandler	PTR FTN()void  size(2) Largest target is 0

    MSSP_I2C_Interrupt_Configurations@i2c_obj.I2C_Report_Write_Collision	PTR FTN()void  size(2) Largest target is 0

    I2C_Slave_Mode_Configurations@i2c_obj.I2C_Report_Receive_Overflow	PTR FTN()void  size(2) Largest target is 0

    I2C_Slave_Mode_Configurations@i2c_obj.I2C_DefaultInterruptHandler	PTR FTN()void  size(2) Largest target is 0

    I2C_Slave_Mode_Configurations@i2c_obj.I2C_Report_Write_Collision	PTR FTN()void  size(2) Largest target is 0

    I2C_Master_Mode_Clock_Configurations@i2c_obj.I2C_Report_Receive_Overflow	PTR FTN()void  size(2) Largest target is 0

    I2C_Master_Mode_Clock_Configurations@i2c_obj.I2C_DefaultInterruptHandler	PTR FTN()void  size(2) Largest target is 0

    I2C_Master_Mode_Clock_Configurations@i2c_obj.I2C_Report_Write_Collision	PTR FTN()void  size(2) Largest target is 0

    I2C_Report_Write_Collision_InterruptHandler	PTR FTN()void  size(2) Largest target is 1
		 -> NULL(), 

    I2C_DefaultInterruptHandle	PTR FTN()void  size(2) Largest target is 1
		 -> NULL(), 

    S1822$I2C_Report_Receive_Overflow	PTR FTN()void  size(2) Largest target is 0

    MSSP_I2C_Init@i2c_obj.I2C_Report_Receive_Overflow	PTR FTN()void  size(2) Largest target is 0

    S1822$I2C_DefaultInterruptHandler	PTR FTN()void  size(2) Largest target is 0

    MSSP_I2C_Init@i2c_obj.I2C_DefaultInterruptHandler	PTR FTN()void  size(2) Largest target is 0

    S1822$I2C_Report_Write_Collision	PTR FTN()void  size(2) Largest target is 0

    MSSP_I2C_Init@i2c_obj.I2C_Report_Write_Collision	PTR FTN()void  size(2) Largest target is 0

    gpio_pin_intialize@pin_config	PTR const struct . size(2) Largest target is 1
		 -> relay_initialize@object(COMRAM[1]), led_initialize@object(COMRAM[1]), dc_motor_initialize@motor_con2(COMRAM[1]), dc_motor_initialize@motor_con1(COMRAM[1]), 

    gpio_pin_write_logic@pin_config	PTR const struct . size(2) Largest target is 1
		 -> relay_turn_off@object(COMRAM[1]), relay_turn_on@object(COMRAM[1]), relay_initialize@object(COMRAM[1]), led_turn_off@object(COMRAM[1]), 
		 -> led_turn_on@object(COMRAM[1]), led_initialize@object(COMRAM[1]), dc_motor_stop@motor_con2(COMRAM[1]), dc_motor_stop@motor_con1(COMRAM[1]), 
		 -> dc_motor_move_left@motor_con2(COMRAM[1]), dc_motor_move_left@motor_con1(COMRAM[1]), dc_motor_move_right@motor_con2(COMRAM[1]), dc_motor_move_right@motor_con1(COMRAM[1]), 
		 -> dc_motor_initialize@motor_con2(COMRAM[1]), dc_motor_initialize@motor_con1(COMRAM[1]), 

    gpio_pin_direction_intialize@pin_config	PTR const struct . size(2) Largest target is 1
		 -> relay_initialize@object(COMRAM[1]), led_initialize@object(COMRAM[1]), dc_motor_initialize@motor_con2(COMRAM[1]), dc_motor_initialize@motor_con1(COMRAM[1]), 

    port_register	PTR volatile unsigned char [5] size(2) Largest target is 1
		 -> PORTE(BITBIGSFRllllll[1]), PORTD(BITBIGSFRllllll[1]), PORTC(BITBIGSFRllllll[1]), PORTB(BITBIGSFRllllll[1]), 
		 -> PORTA(BITBIGSFRllllll[1]), 

    lat_register	PTR volatile unsigned char [5] size(2) Largest target is 1
		 -> LATE(BITBIGSFRlllllh[1]), LATD(BITBIGSFRlllllh[1]), LATC(BITBIGSFRlllllh[1]), LATB(BITBIGSFRlllllh[1]), 
		 -> LATA(BITBIGSFRllllll[1]), 

    tris_register	PTR volatile unsigned char [5] size(2) Largest target is 1
		 -> TRISD(ABS[1]), TRISC(ABS[1]), TRISB(ABS[1]), TRISE(ABS[1]), 
		 -> TRISA(BITBIGSFRllllll[1]), 

    CCP_Compare_Mode_Config@_ccp_obj.CCP2_InterruptHandler	PTR FTN()void  size(2) Largest target is 0

    CCP_Compare_Mode_Config@_ccp_obj.CCP1_InterruptHandler	PTR FTN()void  size(2) Largest target is 0

    CCP_Capture_Mode_Config@_ccp_obj.CCP2_InterruptHandler	PTR FTN()void  size(2) Largest target is 0

    CCP_Capture_Mode_Config@_ccp_obj.CCP1_InterruptHandler	PTR FTN()void  size(2) Largest target is 0

    CCP_Mode_Timer_Select@_ccp_obj.CCP2_InterruptHandler	PTR FTN()void  size(2) Largest target is 0

    CCP_Mode_Timer_Select@_ccp_obj.CCP1_InterruptHandler	PTR FTN()void  size(2) Largest target is 0

    CCP_Interrupt_Config@_ccp_obj.CCP2_InterruptHandler	PTR FTN()void  size(2) Largest target is 0

    CCP_Interrupt_Config@_ccp_obj.CCP1_InterruptHandler	PTR FTN()void  size(2) Largest target is 0

    CCP2_InterruptHandler	PTR FTN()void  size(2) Largest target is 1
		 -> NULL(), 

    CCP1_InterruptHandler	PTR FTN()void  size(2) Largest target is 1
		 -> NULL(), 

    CCP_Compare_Mode_Set_Value@_ccp_obj.CCP2_InterruptHandler	PTR FTN()void  size(2) Largest target is 0

    CCP_Compare_Mode_Set_Value@_ccp_obj.CCP1_InterruptHandler	PTR FTN()void  size(2) Largest target is 0

    CCP_DeInit@_ccp_obj.CCP2_InterruptHandler	PTR FTN()void  size(2) Largest target is 0

    CCP_DeInit@_ccp_obj.CCP1_InterruptHandler	PTR FTN()void  size(2) Largest target is 0

    S1248$CCP2_InterruptHandler	PTR FTN()void  size(2) Largest target is 0

    CCP_Init@_ccp_obj.CCP2_InterruptHandler	PTR FTN()void  size(2) Largest target is 0

    S1248$CCP1_InterruptHandler	PTR FTN()void  size(2) Largest target is 0

    CCP_Init@_ccp_obj.CCP1_InterruptHandler	PTR FTN()void  size(2) Largest target is 0

    configure_voltage_reference@_adc.ADC_InterruptHandler	PTR FTN()void  size(2) Largest target is 0

    select_result_format@_adc.ADC_InterruptHandler	PTR FTN()void  size(2) Largest target is 0

    ADC_GetConversionResult@_adc.ADC_InterruptHandler	PTR FTN()void  size(2) Largest target is 0

    ADC_InterruptHandler	PTR FTN()void  size(2) Largest target is 1
		 -> NULL(), 

    S860$ADC_InterruptHandler	PTR FTN()void  size(2) Largest target is 0

    ADC_Init@_adc.ADC_InterruptHandler	PTR FTN()void  size(2) Largest target is 0

    led_turn_off@led	PTR const struct . size(2) Largest target is 1
		 -> led2(COMRAM[1]), led1(COMRAM[1]), 

    led_turn_on@led	PTR const struct . size(2) Largest target is 1
		 -> led2(COMRAM[1]), led1(COMRAM[1]), 

    led_initialize@led	PTR const struct . size(2) Largest target is 1
		 -> led2(COMRAM[1]), led1(COMRAM[1]), 

    sp__memset	PTR void  size(2) Largest target is 0

    dc_motor_stop@_dc_motor	PTR const struct . size(2) Largest target is 2
		 -> dc_mottor_2(COMRAM[2]), dc_mottor_1(COMRAM[2]), 

    dc_motor_move_left@_dc_motor	PTR const struct . size(2) Largest target is 2
		 -> dc_mottor_2(COMRAM[2]), 

    dc_motor_move_right@_dc_motor	PTR const struct . size(2) Largest target is 2
		 -> dc_mottor_1(COMRAM[2]), 

    dc_motor_initialize@_dc_motor	PTR const struct . size(2) Largest target is 2
		 -> dc_mottor_2(COMRAM[2]), dc_mottor_1(COMRAM[2]), 


Critical Paths under _main in COMRAM

    _led_turn_on->_gpio_pin_write_logic
    _led_turn_off->_gpio_pin_write_logic
    _dc_motor_stop->_gpio_pin_write_logic
    _dc_motor_move_right->_gpio_pin_write_logic
    _dc_motor_move_left->_gpio_pin_write_logic
    _application_int->_EUSART_ASYNC_Init
    _led_initialize->_gpio_pin_intialize
    _dc_motor_initialize->_gpio_pin_intialize
    _gpio_pin_intialize->_gpio_pin_write_logic
    _EUSART_ASYNC_Init->_EUSART_Baud_Rate_Calculation
    _EUSART_Baud_Rate_Calculation->___fladd
    ___fldiv->___xxtofl
    ___fladd->___fldiv
    _EUSART_ASYNC_WriteStringBlocking->_EUSART_ASYNC_WriteByteBlocking

Critical Paths under _InterruptManager in COMRAM

    _InterruptManager->_RB4_ISR
    _InterruptManager->_RB5_ISR
    _InterruptManager->_RB6_ISR
    _InterruptManager->_RB7_ISR

Critical Paths under _main in BANK0

    None.

Critical Paths under _InterruptManager in BANK0

    None.

Critical Paths under _main in BANK1

    None.

Critical Paths under _InterruptManager in BANK1

    None.

Critical Paths under _main in BANK2

    None.

Critical Paths under _InterruptManager in BANK2

    None.

Critical Paths under _main in BANK3

    None.

Critical Paths under _InterruptManager in BANK3

    None.

Critical Paths under _main in BANK4

    None.

Critical Paths under _InterruptManager in BANK4

    None.

Critical Paths under _main in BANK5

    None.

Critical Paths under _InterruptManager in BANK5

    None.

Critical Paths under _main in BANK6

    None.

Critical Paths under _InterruptManager in BANK6

    None.

Critical Paths under _main in BANK7

    None.

Critical Paths under _InterruptManager in BANK7

    None.

Critical Paths under _main in BANK8

    None.

Critical Paths under _InterruptManager in BANK8

    None.

Critical Paths under _main in BANK9

    None.

Critical Paths under _InterruptManager in BANK9

    None.

Critical Paths under _main in BANK10

    None.

Critical Paths under _InterruptManager in BANK10

    None.

Critical Paths under _main in BANK11

    None.

Critical Paths under _InterruptManager in BANK11

    None.

Critical Paths under _main in BANK12

    None.

Critical Paths under _InterruptManager in BANK12

    None.

Critical Paths under _main in BANK13

    None.

Critical Paths under _InterruptManager in BANK13

    None.

Critical Paths under _main in BANK14

    None.

Critical Paths under _InterruptManager in BANK14

    None.

Critical Paths under _main in BANK15

    None.

Critical Paths under _InterruptManager in BANK15

    None.

Call Graph Tables:

 ---------------------------------------------------------------------------------
 (Depth) Function   	        Calls       Base Space   Used Autos Params    Refs
 ---------------------------------------------------------------------------------
 (0) _main                                                 6     6      0   50052
                                             71 COMRAM     5     5      0
      _EUSART_ASYNC_ReadByteBlocking
   _EUSART_ASYNC_WriteStringBlocking
                    _application_int
                 _dc_motor_move_left
                _dc_motor_move_right
                      _dc_motor_stop
              _gpio_port_write_logic
                       _led_turn_off
                        _led_turn_on
 ---------------------------------------------------------------------------------
 (1) _led_turn_on                                          5     3      2    5171
                                             11 COMRAM     4     2      2
               _gpio_pin_write_logic
 ---------------------------------------------------------------------------------
 (1) _led_turn_off                                         5     3      2    5171
                                             11 COMRAM     4     2      2
               _gpio_pin_write_logic
 ---------------------------------------------------------------------------------
 (1) _gpio_port_write_logic                                5     4      1     166
                                              1 COMRAM     5     4      1
 ---------------------------------------------------------------------------------
 (1) _dc_motor_stop                                        6     4      2    5285
                                             11 COMRAM     6     4      2
               _gpio_pin_write_logic
 ---------------------------------------------------------------------------------
 (1) _dc_motor_move_right                                  6     4      2    5209
                                             11 COMRAM     6     4      2
               _gpio_pin_write_logic
 ---------------------------------------------------------------------------------
 (1) _dc_motor_move_left                                   6     4      2    5209
                                             11 COMRAM     6     4      2
               _gpio_pin_write_logic
 ---------------------------------------------------------------------------------
 (1) _application_int                                      1     1      0   22259
                  _EUSART_ASYNC_Init
                _dc_motor_initialize
      _gpio_port_direction_intialize
                     _led_initialize
 ---------------------------------------------------------------------------------
 (2) _led_initialize                                       5     3      2    7106
                                             15 COMRAM     5     3      2
                 _gpio_pin_intialize
 ---------------------------------------------------------------------------------
 (2) _gpio_port_direction_intialize                        5     4      1     166
                                              1 COMRAM     5     4      1
 ---------------------------------------------------------------------------------
 (2) _dc_motor_initialize                                  6     4      2    7212
                                             15 COMRAM     6     4      2
                 _gpio_pin_intialize
 ---------------------------------------------------------------------------------
 (3) _gpio_pin_intialize                                   4     2      2    6802
                                             11 COMRAM     4     2      2
       _gpio_pin_direction_intialize
               _gpio_pin_write_logic
 ---------------------------------------------------------------------------------
 (2) _gpio_pin_write_logic                                10     7      3    4891
                                              1 COMRAM    10     7      3
 ---------------------------------------------------------------------------------
 (4) _gpio_pin_direction_intialize                         9     7      2     559
                                              1 COMRAM     9     7      2
 ---------------------------------------------------------------------------------
 (2) _EUSART_ASYNC_Init                                    3     1      2    7768
                                             68 COMRAM     3     1      2
               _EUSART_ASYNC_RX_Init
               _EUSART_ASYNC_TX_Init
       _EUSART_Baud_Rate_Calculation
 ---------------------------------------------------------------------------------
 (3) _EUSART_Baud_Rate_Calculation                        12    10      2    7119
                                             56 COMRAM    12    10      2
                            ___fladd
                            ___fldiv
                            ___fltol
                           ___xxtofl
 ---------------------------------------------------------------------------------
 (4) ___xxtofl                                            14    10      4     692
                                              1 COMRAM    14    10      4
 ---------------------------------------------------------------------------------
 (4) ___fltol                                             10     6      4     457
                                              1 COMRAM    10     6      4
 ---------------------------------------------------------------------------------
 (4) ___fldiv                                             25    17      8    2575
                                             15 COMRAM    25    17      8
                           ___xxtofl (ARG)
 ---------------------------------------------------------------------------------
 (4) ___fladd                                             16     8      8    2976
                                             40 COMRAM    16     8      8
                            ___fldiv (ARG)
                           ___xxtofl (ARG)
 ---------------------------------------------------------------------------------
 (3) _EUSART_ASYNC_TX_Init                                 2     0      2     208
                                              1 COMRAM     2     0      2
 ---------------------------------------------------------------------------------
 (3) _EUSART_ASYNC_RX_Init                                 2     0      2     252
                                              1 COMRAM     2     0      2
 ---------------------------------------------------------------------------------
 (1) _EUSART_ASYNC_WriteStringBlocking                     9     5      4    1376
                                              2 COMRAM     9     5      4
     _EUSART_ASYNC_WriteByteBlocking
 ---------------------------------------------------------------------------------
 (2) _EUSART_ASYNC_WriteByteBlocking                       2     2      0      45
                                              1 COMRAM     1     1      0
 ---------------------------------------------------------------------------------
 (1) _EUSART_ASYNC_ReadByteBlocking                        3     1      2     121
                                              1 COMRAM     2     0      2
 ---------------------------------------------------------------------------------
 Estimated maximum stack depth 4
 ---------------------------------------------------------------------------------
 (Depth) Function   	        Calls       Base Space   Used Autos Params    Refs
 ---------------------------------------------------------------------------------
 (5) _InterruptManager                                     0     0      0     176
                            _ADC_ISR
                           _CCP1_ISR
                           _CCP2_ISR
                      _EUSART_RX_ISR
                      _EUSART_TX_ISR
                           _INT0_ISR
                           _INT1_ISR
                           _INT2_ISR
                    _MSSP_I2C_BC_ISR
                       _MSSP_I2C_ISR
                            _RB4_ISR
                            _RB5_ISR
                            _RB6_ISR
                            _RB7_ISR
                           _TMR0_ISR
                           _TMR1_ISR
                           _TMR2_ISR
                           _TMR3_ISR
 ---------------------------------------------------------------------------------
 (6) _TMR3_ISR                                             0     0      0       0
 ---------------------------------------------------------------------------------
 (6) _TMR2_ISR                                             0     0      0       0
 ---------------------------------------------------------------------------------
 (6) _TMR1_ISR                                             0     0      0       0
 ---------------------------------------------------------------------------------
 (6) _TMR0_ISR                                             0     0      0       0
 ---------------------------------------------------------------------------------
 (6) _RB7_ISR                                              1     1      0      44
                                              0 COMRAM     1     1      0
 ---------------------------------------------------------------------------------
 (6) _RB6_ISR                                              1     1      0      44
                                              0 COMRAM     1     1      0
 ---------------------------------------------------------------------------------
 (6) _RB5_ISR                                              1     1      0      44
                                              0 COMRAM     1     1      0
 ---------------------------------------------------------------------------------
 (6) _RB4_ISR                                              1     1      0      44
                                              0 COMRAM     1     1      0
 ---------------------------------------------------------------------------------
 (6) _MSSP_I2C_ISR                                         0     0      0       0
 ---------------------------------------------------------------------------------
 (6) _MSSP_I2C_BC_ISR                                      0     0      0       0
 ---------------------------------------------------------------------------------
 (6) _INT2_ISR                                             0     0      0       0
 ---------------------------------------------------------------------------------
 (6) _INT1_ISR                                             0     0      0       0
 ---------------------------------------------------------------------------------
 (6) _INT0_ISR                                             0     0      0       0
 ---------------------------------------------------------------------------------
 (6) _EUSART_TX_ISR                                        0     0      0       0
 ---------------------------------------------------------------------------------
 (6) _EUSART_RX_ISR                                        0     0      0       0
 ---------------------------------------------------------------------------------
 (6) _CCP2_ISR                                             0     0      0       0
 ---------------------------------------------------------------------------------
 (6) _CCP1_ISR                                             0     0      0       0
 ---------------------------------------------------------------------------------
 (6) _ADC_ISR                                              0     0      0       0
 ---------------------------------------------------------------------------------
 Estimated maximum stack depth 6
 ---------------------------------------------------------------------------------

 Call Graph Graphs:

 _main (ROOT)
   _EUSART_ASYNC_ReadByteBlocking
   _EUSART_ASYNC_WriteStringBlocking
     _EUSART_ASYNC_WriteByteBlocking
   _application_int
     _EUSART_ASYNC_Init
       _EUSART_ASYNC_RX_Init
       _EUSART_ASYNC_TX_Init
       _EUSART_Baud_Rate_Calculation
         ___fladd
           ___fldiv (ARG)
             ___xxtofl (ARG)
           ___xxtofl (ARG)
         ___fldiv
         ___fltol
         ___xxtofl
     _dc_motor_initialize
       _gpio_pin_intialize
         _gpio_pin_direction_intialize
         _gpio_pin_write_logic
     _gpio_port_direction_intialize
     _led_initialize
       _gpio_pin_intialize
   _dc_motor_move_left
     _gpio_pin_write_logic
   _dc_motor_move_right
     _gpio_pin_write_logic
   _dc_motor_stop
     _gpio_pin_write_logic
   _gpio_port_write_logic
   _led_turn_off
     _gpio_pin_write_logic
   _led_turn_on
     _gpio_pin_write_logic

 _InterruptManager (ROOT)
   _ADC_ISR
   _CCP1_ISR
   _CCP2_ISR
   _EUSART_RX_ISR
   _EUSART_TX_ISR
   _INT0_ISR
   _INT1_ISR
   _INT2_ISR
   _MSSP_I2C_BC_ISR
   _MSSP_I2C_ISR
   _RB4_ISR
   _RB5_ISR
   _RB6_ISR
   _RB7_ISR
   _TMR0_ISR
   _TMR1_ISR
   _TMR2_ISR
   _TMR3_ISR

 Address spaces:
Name               Size   Autos  Total    Cost      Usage
BIGRAM             F7F      0       0      48        0.0%
EEDATA             400      0       0       0        0.0%
BITBANK14          100      0       0      32        0.0%
BANK14             100      0       0      33        0.0%
BITBANK13          100      0       0      30        0.0%
BANK13             100      0       0      31        0.0%
BITBANK12          100      0       0      28        0.0%
BANK12             100      0       0      29        0.0%
BITBANK11          100      0       0      26        0.0%
BANK11             100      0       0      27        0.0%
BITBANK10          100      0       0      24        0.0%
BANK10             100      0       0      25        0.0%
BITBANK9           100      0       0      22        0.0%
BANK9              100      0       0      23        0.0%
BITBANK8           100      0       0      20        0.0%
BANK8              100      0       0      21        0.0%
BITBANK7           100      0       0      18        0.0%
BANK7              100      0       0      19        0.0%
BITBANK6           100      0       0      16        0.0%
BANK6              100      0       0      17        0.0%
BITBANK5           100      0       0      14        0.0%
BANK5              100      0       0      15        0.0%
BITBANK4           100      0       0      12        0.0%
BANK4              100      0       0      13        0.0%
BITBANK3           100      0       0      10        0.0%
BANK3              100      0       0      11        0.0%
BITBANK2           100      0       0       8        0.0%
BANK2              100      0       0       9        0.0%
BITBANK1           100      0       0       6        0.0%
BANK1              100      0       0       7        0.0%
BITBANK15           80      0       0      34        0.0%
BANK15              80      0       0      35        0.0%
BITBANK0            80      0       0       4        0.0%
BANK0               80      0      66       5       79.7%
BITCOMRAM           7E      0       0       0        0.0%
COMRAM              7E     4C      7D       1       99.2%
BITBIGSFRlhhhhh     18      0       0      37        0.0%
BITBIGSFRh           D      0       0      36        0.0%
BITBIGSFRllllhh      6      0       0      44        0.0%
BITBIGSFRlhhhhh      5      0       0      38        0.0%
BITBIGSFRlhllll      4      0       0      41        0.0%
BITBIGSFRlllllh      4      0       0      45        0.0%
BITBIGSFRlllhh       4      0       0      42        0.0%
BITBIGSFRllllll      4      0       0      46        0.0%
BITBIGSFRlhllll      1      0       0      40        0.0%
BITBIGSFRlhhhhh      1      0       0      39        0.0%
BITBIGSFRlllhl       1      0       0      43        0.0%
BIGSFR               0      0       0     200        0.0%
BITSFR               0      0       0     200        0.0%
SFR                  0      0       0     200        0.0%
STACK                0      0       0       2        0.0%
NULL                 0      0       0       0        0.0%
ABS                  0      0      E3      47        0.0%
DATA                 0      0      E3       3        0.0%
CODE                 0      0       0       0        0.0%


Microchip Technology PIC18 Macro Assembler V2.41 build 20230208172133 
Symbol Table                                                                                   Mon Oct 02 16:04:56 2023

                          ??_InterruptManager 0002                                  ___fldiv@aexp 0028  
                                ___fldiv@bexp 0027                                             _c 0073  
                                           _x 00B2                                  ___fldiv@sign 0020  
                                 _SSPSTATbits 0FC7                                            l51 2C4E  
                                          l60 2A82                                            l45 2B8C  
                                          l54 29B8                                            l63 2AA2  
                                          l72 28CE                                            l69 2B6C  
                                          l78 2998                                           l281 2E72  
                                         l274 2DFE                                           l292 2F46  
                                         l285 2ED0                                           l710 318C  
                                         l278 2E5A                                           l720 3146  
                                         l288 2EE8                                           l705 2FB2  
                                         l665 267C                                           l684 27A8  
                   _RB5_InterruptHandler_HIGH 00DC                               __end_of_ADC_ISR 32CA  
                         led_initialize@F3048 006A                                           prod 0FF3  
                       relay_initialize@F3042 0066                                           wreg 0FE8  
                                ?_led_turn_on 000C                               __end_of_RB4_ISR 3270  
                             __end_of_RB5_ISR 3256                               __end_of_RB6_ISR 323C  
                             __end_of_RB7_ISR 3222                                  ___fltol@exp1 000B  
                                        l2210 20BC                                          l2202 1FC2  
                                        l2211 20AA                                          l1500 1086  
                                        l1502 113E                                          l2143 174E  
                                        l1503 11F6                                          l2160 1868  
                                        l2152 1A1E                                          l2144 173C  
                                        l2208 2044                                          l1504 12AE  
                                        l1521 2DDE                                          l2145 1702  
                                        l1505 1366                                          l1530 2D2A  
                                        l2170 1926                                          l1506 141C  
                                        l1508 155E                                          l1612 3100  
                                        l1517 2DDE                                          l1470 31EC  
                                        l1534 2D2A                                          l2270 23DC  
                                        l1481 31F0                                          l2169 1938  
                                        l2273 2538                                          l1457 3086  
                                        l1490 306A                                          l1467 31D0  
                                        l1483 31FE                                          l1459 30B8  
                                        l1484 3206                                          l2284 24D0  
                                        l2197 219E                                          l2277 2474  
                                        l2199 1FFE                                          l1912 28AE  
                                        l6101 2A70                                          l6031 2E38  
                                        l6023 2DE0                                          l6111 2A9A  
                                        l6103 2A80                                          l1599 237E  
                                        l5401 1560                                          l6041 314A  
                                        l6033 2E3A                                          l6025 2DE4  
                                        l6121 2AF4                                          l6113 2AA6  
                                        l5411 159C                                          l5403 156C  
                                        l6043 314E                                          l6035 2E4C  
                                        l6027 2DF6                                          l6131 2B5A  
                                        l6123 2B10                                          l6115 2ADC  
                                        l6107 2A84                                          l5501 175C  
                                        l5421 15CC                                          l5413 15AC  
                                        l5405 157A                                          l6061 30B0  
                                        l6053 306C                                          l6045 315E  
                                        l6029 2E02                                          l6037 2E58  
                                        l6125 2B32                                          l6117 2ADE  
                                        l6133 2B6A                                          l6109 2A88  
                                        l6141 28C6                                          l6071 3200  
                                        l5511 179E                                          l5503 176C  
                                        l5431 15F6                                          l5423 15DE  
                                        l5415 15AE                                          l5407 157C  
                                        l6063 30B2                                          l6055 306C  
                                        l6047 3166                                          l6127 2B34  
                                        l6119 2AF0                                          l6151 2920  
                                        l6143 28D2                                          l6231 2E5C  
                                        l6073 3204                                          l5521 17CC  
                                        l5513 17AC                                          l5433 1606  
                                        l5441 1630                                          l5425 15E0  
                                        l5409 158C                                          l5417 15B6  
                                        l6065 30B6                                          l6057 307E  
                                        l5361 26BE                                          l5353 267E  
                                        l6049 318A                                          l6129 2B4A  
                                        l6081 29B0                                          l6161 2986  
                                        l6153 293C                                          l6145 2908  
                                        l6137 28B0                                          l6241 2EC0  
                                        l6233 2E6E                                          l6411 3068  
                                        l6403 3016                                          l5531 1838  
                                        l5523 17D6                                          l5515 17B8  
                                        l5507 1780                                          l5451 1668  
                                        l5443 1640                                          l5435 1616  
                                        l5427 15E6                                          l5419 15C6  
                                        l5611 1E32                                          l5603 1E06  
                                        l6059 308C                                          l5363 2720  
                                        l5355 2682                                          l6091 2A0A  
                                        l6083 29BC                                          l6155 295E  
                                        l6147 290A                                          l6163 2996  
                                        l6139 28B4                                          l6251 2EEC  
                                        l6235 2E76                                          l6069 31F0  
                                        l6405 302E                                          l5533 1848  
                                        l5517 17BC                                          l5509 1790  
                                        l5525 17DC                                          l5461 167C  
                                        l5453 166C                                          l5445 1652  
                                        l5437 1626                                          l5429 15F4  
                                        l5701 2066                                          l5621 1E6C  
                                        l5613 1E42                                          l5605 1E12  
                                        l5381 2550                                          l5357 2694  
                                        l6421 30D0                                          l6093 2A26  
                                        l6085 29F2                                          l6077 299A  
                                        l6157 2960                                          l6149 291C  
                                        l6261 3104                                          l6253 2F22  
                                        l6245 2ED2                                          l6237 2EAC  
                                        l6229 2E5C                                          l6407 304E  
                                        l5551 18CA                                          l5543 18A2  
                                        l5527 1802                                          l5535 1858  
                                        l5519 17CA                                          l5471 1690  
                                        l5463 1680                                          l5455 1670  
                                        l5447 1660                                          l5439 1628  
                                        l5711 20D8                                          l5703 2074  
                                        l5631 1E98                                          l5623 1E72  
                                        l5615 1E52                                          l5607 1E20  
                                        l5391 2638                                          l5383 2572  
                                        l5367 277C                                          l5359 26B6  
                                        l6423 30DC                                          l6415 30BA  
                                        l6095 2A48                                          l6087 29F4  
                                        l6079 299E                                          l6159 2976  
                                        l6263 3108                                          l6255 2F24  
                                        l6247 2ED2                                          l6239 2EAE  
                                        l6409 3052                                          l5553 18D2  
                                        l5545 18AC                                          l5537 187E  
                                        l5529 1836                                          l5561 18F6  
                                        l5481 16A4                                          l5473 1694  
                                        l5465 1684                                          l5457 1674  
                                        l5449 1664                                          l5721 2144  
                                        l5713 20E6                                          l5705 20A2  
                                        l5641 1ED2                                          l5633 1EA8  
                                        l5625 1E78                                          l5617 1E54  
                                        l5609 1E22                                          l5801 242A  
                                        l5385 257A                                          l5393 267A  
                                        l5377 253A                                          l5369 27A6  
                                        l6425 30E8                                          l6417 30BA  
                                        l6097 2A4A                                          l6089 2A06  
                                        l6265 3118                                          l6257 2F36  
                                        l6249 2EE4                                          l5571 1948  
                                        l5563 18FA                                          l5555 18D6  
                                        l5547 18BA                                          l5539 188E  
                                        l5491 171C                                          l5483 16CE  
                                        l5475 1698                                          l5467 1688  
                                        l5459 1678                                          l5731 2192  
                                        l5723 215E                                          l5715 2110  
                                        l5643 1EE8                                          l5635 1EB8  
                                        l5627 1E86                                          l5619 1E5C  
                                        l5811 24B2                                          l5803 245C  
                                        l5387 25DC                                          l5379 253E  
                                        l6427 30F4                                          l6419 30C6  
                                        l6099 2A60                                          l6267 3120  
                                        l5901 2C6A                                          l5581 19AE  
                                        l5573 1954                                          l5565 1908  
                                        l5557 18E6                                          l5549 18BC  
                                        l5493 1720                                          l5485 16EA  
                                        l5477 169C                                          l5469 168C  
                                        l5733 2194                                          l5725 217A  
                                        l5709 20CC                                          l5717 2114  
                                        l5661 1F3C                                          l5645 1EF8  
                                        l5653 1F18                                          l5637 1EBA  
                                        l5629 1E88                                          l5741 27AA  
                                        l5821 2508                                          l5813 24C0  
                                        l5805 245E                                          l6269 3144  
                                        l5911 2CEA                                          l5903 2C6C  
                                        l5591 19F6                                          l5583 19BE  
                                        l5575 1962                                          l5567 191E  
                                        l5559 18E8                                          l5495 172E  
                                        l5487 16FA                                          l5479 16A0  
                                        l5727 217E                                          l5719 212E  
                                        l5671 1F8E                                          l5663 1F56  
                                        l5655 1F28                                          l5647 1F00  
                                        l5639 1EC2                                          l5751 2800  
                                        l5743 27C0                                          l5823 2518  
                                        l5815 24DE                                          l5807 246A  
                                        l5831 2F48                                          l5913 2D04  
                                        l5905 2CC2                                          l5593 19F8  
                                        l5585 19DE                                          l5577 199C  
                                        l5497 1730                                          l5489 1710  
                                        l5729 218C                                          l5681 1FEA  
                                        l5673 1F9E                                          l5665 1F66  
                                        l5657 1F28                                          l5649 1F04  
                                        l5753 2810                                          l5825 2526  
                                        l5817 24E0                                          l5809 24A6  
                                        l7513 2790                                          l5841 2FB0  
                                        l5833 2F48                                          l5921 2B72  
                                        l6395 31D0                                          l5915 2D0A  
                                        l5907 2CCE                                          l5595 19FE  
                                        l5587 19E2                                          l5579 199E  
                                        l5499 173A                                          l5691 202A  
                                        l5683 1FEC                                          l5675 1FB2  
                                        l5667 1F76                                          l5763 283A  
                                        l5755 2814                                          l5747 27D4  
                                        l5827 2528                                          l5819 24E4  
                                        l5851 1144                                          l7515 2664  
                                        l5835 2F5A                                          l5931 2BDA  
                                        l5923 2B84                                          l7451 21BC  
                                        l6397 31DE                                          l5917 2D24  
                                        l5909 2CE8                                          l5597 1A0C  
                                        l5589 19F0                                          l5693 2034  
                                        l5685 1FFC                                          l5677 1FC0  
                                        l5669 1F86                                          l5781 289E  
                                        l5773 2862                                          l5765 2844  
                                        l5757 2822                                          l5749 27FE  
                                        l7517 14F2                                          l5861 130A  
                                        l5853 119A                                          l5845 1072  
                                        l5837 2F7C                                          l5941 2C34  
                                        l5933 2BDE                                          l5925 2B90  
                                        l7461 2224                                          l7453 21CE  
                                        l7445 21A0                                          l6399 31EA  
                                        l5599 1A0E                                          l5695 2042  
                                        l5687 200E                                          l5679 1FCC  
                                        l5775 286E                                          l5767 284E  
                                        l5791 23EC                                          l5863 136A  
                                        l5855 11FC                                          l5847 108C  
                                        l5871 14D2                                          l5839 2F84  
                                        l5943 2C40                                          l5935 2BFA  
                                        l5927 2BC6                                          l5919 2B6E  
                                        l7471 2292                                          l7463 223C  
                                        l7455 21E6                                          l7447 21AC  
                                        l5881 2D46                                          l5689 2024  
                                        l5697 2054                                          l5777 287E  
                                        l5793 2402                                          l5785 2388  
                                        l5865 13C0                                          l5857 1252  
                                        l5873 1528                                          l5849 10E2  
                                        l5937 2C1C                                          l5929 2BC8  
                                        l5945 2C4C                                          l7481 22E6  
                                        l7473 22A6                                          l7465 2250  
                                        l7457 21FA                                          l7449 21B0  
                                        l5891 2D9E                                          l5883 2D48  
                                        l5699 2062                                          l5779 288E  
                                        l5787 2398                                          l5867 1420  
                                        l5859 12B4                                          l5939 2C1E  
                                        l7483 22FE                                          l7475 22BE  
                                        l7467 2268                                          l7459 2212  
                                        l5893 2DB8                                          l5885 2D76  
                                        l5797 2416                                          l5789 23A6  
                                        l5869 1476                                          l7493 232E  
                                        l7485 2312                                          l7469 227A  
                                        l5895 2DBE                                          l5887 2D82  
                                        l5879 2D2C                                          l5799 241E  
                                        l7495 234A                                          l7487 2326  
                                        l7479 22D4                                          l5897 2DD8  
                                        l5889 2D9C                                          l7497 2360  
                                        l5899 2C50                                          l7499 2364  
                                        STR_1 106D                                          STR_2 1059  
                                        STR_3 102B                                          STR_4 1063  
                                        STR_5 1037                                          STR_6 1043  
                                        STR_7 1011                                          STR_8 104E  
                                        STR_9 101E                                          _LATA 0F89  
                                        _LATB 0F8A                                          _LATC 0F8B  
                                        _LATD 0F8C                                          _LATE 0F8D  
                                        u4010 2550                                          u4011 254C  
                                        u4100 15DE                                          u4020 2572  
                                        u4004 2740                                          u4101 15DA  
                                        u4021 256E                                          u4005 273C  
                                        u4110 15F4                                          u4111 15F0  
                                        u4200 172E                                          u4120 1606  
                                        u4201 172A                                          u4121 1602  
                                        u4210 174E                                          u4130 1616  
                                        u4050 2650                                          u4034 259A  
                                        u4211 174A                                          u4131 1612  
                                        u4051 264A                                          u4035 2596  
                                        u4300 188E                                          u4220 175C  
                                        u4140 1652                                          u4060 2652  
                                        u4044 25FC                                          u5100 29B0  
                                        u4301 188A                                          u4221 1758  
                                        u4141 164E                                          u4045 25F8  
                                        u5005 2C32                                          u5101 29AC  
                                        u4310 18BA                                          u4230 176C  
                                        u4150 1660                                          u4070 157A  
                                        u4311 18B6                                          u4231 1768  
                                        u4151 165C                                          u4071 1576  
                                        u5007 2C34                                          u4400 199C  
                                        u4320 18CA                                          u4240 179E  
                                        u4160 16CE                                          u4080 158C  
                                        u4401 1998                                          u4321 18C6  
                                        u4241 179A                                          u4161 16CA  
                                        u4081 1588                                          u4410 19AE  
                                        u4330 18E6                                          u4250 17AC  
                                        u4170 16E6                                          u4090 159C  
                                        u5050 2DF6                                          u5130 2A9A  
                                        u4411 19AA                                          u4331 18E2  
                                        u4251 17A8                                          u4171 16E0  
                                        u4091 1598                                          u5051 2DF2  
                                        u5131 2A96                                          u5115 2A04  
                                        u4420 19BE                                          u4340 18F6  
                                        u4260 17CA                                          u4180 16E8  
                                        u4500 1E98                                          u4421 19BA  
                                        u4341 18F2                                          u4261 17C6  
                                        u4501 1E94                                          u5125 2A5E  
                                        u5117 2A06                                          u4430 19DE  
                                        u4350 1908                                          u4270 1802  
                                        u4190 1710                                          u4510 1EA8  
                                        u5070 315E                                          u4431 19DA  
                                        u4351 1904                                          u4271 17FE  
                                        u4191 170C                                          u4511 1EA4  
                                        u5071 315A                                          u5127 2A60  
                                        u4440 19F0                                          u4360 191E  
                                        u4280 1848                                          u4600 2062  
                                        u4520 1EE8                                          u5080 307E  
                                        u5160 28C6                                          u4441 19EC  
                                        u4361 191A                                          u4281 1844  
                                        u4601 205E                                          u4521 1EE4  
                                        u5081 307A                                          u5065 2E4A  
                                        u5145 2AEE                                          u5161 28C2  
                                        u5090 31FE                                          u4450 1A0C  
                                        u4370 1934                                          u4290 187E  
                                        u4610 2074                                          u4530 1F28  
                                        u5250 2E6E                                          u5091 31FA  
                                        u4451 1A08                                          u4371 1930  
                                        u4291 187A                                          u4611 2070  
                                        u4531 1F24                                          u5067 2E4C  
                                        u5155 2B48                                          u5147 2AF0  
                                        u5251 2E6A                                          u4380 1948  
                                        u4620 20A2                                          u4540 1F9E  
                                        u4460 1E20                                          u4700 27F4  
                                        u4381 1944                                          u4621 209E  
                                        u4541 1F9A                                          u4461 1E1C  
                                        u5157 2B4A                                          u5350 31DE  
                                        u4390 1962                                          u4630 20B8  
                                        u4550 1FC0                                          u4470 1E32  
                                        u4710 2822                                          u5270 2EE4  
                                        u5351 31DA                                          u4391 195E  
                                        u4631 20B4                                          u4551 1FBC  
                                        u4471 1E2E                                          u4711 281E  
                                        u5175 291A                                          u5271 2EE0  
                                        u7007 2354                                          u5360 3068  
                                        u4640 20CC                                          u4560 1FEA  
                                        u4480 1E42                                          u4720 2836  
                                        u4800 24A2                                          u5361 3064  
                                        u4641 20C8                                          u4561 1FE6  
                                        u4481 1E3E                                          u4721 2832  
                                        u4705 27EA                                          u4801 249E  
                                        u5185 2974                                          u5177 291C  
                                        u5265 2EBE                                          u4650 20E6  
                                        u4570 200E                                          u4490 1E86  
                                        u4730 285E                                          u4810 24C0  
                                        u5290 3118                                          u4651 20E2  
                                        u4571 200A                                          u4491 1E82  
                                        u4731 285A                                          u4811 24BC  
                                        u5187 2976                                          u5291 3114  
                                        u5267 2EC0                                          u4900 2D9C  
                                        u4660 212E                                          u4580 2024  
                                        u4740 287E                                          u4820 24D0  
                                        u4901 2D98                                          u4661 212A  
                                        u4581 2020                                          u4741 287A  
                                        u4821 24CC                                          u5285 2F34  
                                        u4910 2DB8                                          u4670 215E  
                                        u4590 2042                                          u4750 288E  
                                        u4830 24DE                                          u4911 2DB4  
                                        u4671 215A                                          u4591 203E  
                                        u4751 288A                                          u4831 24DA  
                                        u5287 2F36                                          u4920 2DD8  
                                        u4680 218C                                          u4840 2518  
                                        u4760 2398                                          u4921 2DD4  
                                        u4681 2188                                          u4841 2514  
                                        u4761 2394                                          u4930 2C6A  
                                        u4690 27C0                                          u4850 2526  
                                        u4770 23A6                                          u3970 2694  
                                        u4931 2C66                                          u4691 27BC  
                                        u4851 2522                                          u4771 23A2  
                                        u3971 2690                                          u4940 2CC2  
                                        u4780 2402                                          u3980 26B6  
                                        u4860 2F5A                                          u4941 2CBE  
                                        u4781 23FE                                          u3981 26B2  
                                        u4861 2F56                                          u4950 2CE8  
                                        u4790 2458                                          u4870 2F7C  
                                        u4951 2CE4                                          u4791 2454  
                                        u4871 2F78                                          u4960 2D04  
                                        u4880 2D46                                          u4961 2D00  
                                        u4881 2D42                                          u4970 2D24  
                                        u4890 2D76                                          u3994 26DE  
                                        u4971 2D20                                          u4891 2D72  
                                        u3995 26DA                                          u4980 2B84  
                                        u4981 2B80                                          u4995 2BD8  
                                        u6940 21CE                                          u4997 2BDA  
                                        u6941 21CA                                          u6950 2224  
                                        u6951 2220                                          u6960 227A  
                                        u6961 2276                                          u6970 22D0  
                                        u6971 22CC                                          u6980 22E6  
                                        u6981 22E2                                          u6990 237A  
                                        u6991 2376                                          _TMR2 0FCC  
                    _RB4_InterruptHandler_LOW 00DE                                          _led1 0074  
                                        _led2 007D                                          _main 21A0  
                            __end_of_CCP1_ISR 32C6                              __end_of_CCP2_ISR 32C2  
                    _RB7_InterruptHandler_LOW 00D2                                          fsr2h 0FDA  
                                        indf2 0FDF                                          fsr1l 0FE1  
                                        fsr2l 0FD9                                          btemp 007E  
                      __end_of_led_initialize 2E5C                                          prodl 0FF3  
                                        start 000E                               ___fldiv@new_exp 0021  
                               ?_led_turn_off 000C                                  ___param_bank 0000  
                       _gpio_port_write_logic 3102                        dc_motor_initialize@ret 0013  
                        _gpio_pin_write_logic 267E                              __end_of_INT0_ISR 32BA  
                            __end_of_INT1_ISR 32B6                              __end_of_INT2_ISR 32B2  
                               _EUSART_RX_ISR 32CA  EUSART_ASYNC_WriteStringBlocking@char_counter 000A  
                               ___fltol@sign1 000A                                 _EUSART_TX_ISR 32BA  
                             __end_of___fladd 1A20                                         ?_main 0001  
                             __end_of___fldiv 21A0                                         _EEADR 0FA9  
                             __end_of___fltol 28B0                                         i2l561 32C0  
                                       i2l475 32C8                                         i2l556 32C4  
                                       i2l863 32A8                                         i2l951 1B0A  
                                       i2l943 1A42                                         i2l961 1C5E  
                                       i2l953 1B4E                                         i2l945 1A62  
                                       i2l867 32AC                                         i2l971 1D22  
                                       i2l963 1CA2                                         i2l955 1B92  
                                       i2l947 1A82                                         i2l981 1DC2  
                                       i2l973 1D42                                         i2l965 1CC2  
                                       i2l957 1BD6                                         i2l949 1AC6  
                                       i2l983 1DE2                                         i2l975 1D62  
                                       i2l967 1CE2                                         i2l959 1C1A  
                                       i2l977 1D82                                         i2l969 1D02  
                                       i2l986 1E02                                         i2l979 1DA2  
                                       _RCREG 0FAE                           relay_turn_off@F3052 0064  
                                       _TMR0H 0FD7                                         _TMR1H 0FCF  
                                       _TMR0L 0FD6                                         _TMR1L 0FCE  
                                       _TMR3H 0FB3                                         _TMR3L 0FB2  
                                       _SPBRG 0FAF                                         _PORTA 0F80  
                                       _PORTB 0F81                                         _PORTC 0F82  
                                       _PORTD 0F83                                         _PORTE 0F84  
                                       _TRISA 0F92                                         _TRISB 0F93  
                                       _TRISC 0F94                                         _TRISD 0F95  
                                       _TRISE 0F96                                         _TXREG 0FAD  
                            __end_of_TMR0_ISR 3294                              __end_of_TMR1_ISR 3288  
                            __end_of_TMR2_ISR 32A6                              __end_of_TMR3_ISR 327C  
                        led_initialize@object 0014                                         _array 0080  
                                       main@z 004A                                         tablat 0FF5  
      __end_of_EUSART_ASYNC_WriteByteBlocking 3208                _EUSART_ASYNC_WriteByteBlocking 31EE  
                                       ttemp5 007F                                         ttemp6 0082  
                                       ttemp7 0086                                         status 0FD8  
                                       wtemp8 007F                               ?_led_initialize 0010  
                              ??_led_turn_off 000E        gpio_port_direction_intialize@direction 0002  
                             __initialization 2FB4                                  __end_of_main 2386  
                       ?_gpio_pin_write_logic 0002                                     ??_ADC_ISR 0001  
                              ?_EUSART_RX_ISR 0001                                ?_EUSART_TX_ISR 0001  
                 __end_of_dc_motor_initialize 2C50                                        ??_main 0048  
                               __activetblptr 0003                         _TMR3_InterruptHandler 00CA  
                            led_turn_on@F3053 0069                ?_gpio_port_direction_intialize 0002  
                                   ??_RB4_ISR 0001                                     ??_RB5_ISR 0001  
                                   ??_RB6_ISR 0001                                     ??_RB7_ISR 0001  
                  _EUSART_OverrunErrorHandler 00C2                                        _ADRESH 0FC4  
                                      _EEADRH 0FAA                                        _ADRESL 0FC3  
                                      _EEDATA 0FA8                                        _CCPR1H 0FBF  
                                      _CCPR2H 0FBC                                        _CCPR1L 0FBE  
                                      _CCPR2L 0FBB                                        _EECON2 0FA7  
                           _EUSART_ASYNC_Init 306C                                        i2l1043 32B4  
                                      i2l1038 32B8                                        i2l1070 3254  
                                      i2l1048 32B0                                        i2l1312 3286  
                                      i2l1081 323A                                        i2l1059 326E  
                                      i2l1243 3292                                        i2l1092 3220  
                                      i2l1407 327A                                        i2l1363 32A4  
                                      i2l3311 32AA                                        i2l3321 32B2  
                                      i2l1539 32BC                                        i2l3315 32B6  
                                      i2l3307 32A6                                        i2l1548 32CA  
                                      i2l3271 32C2                                        i2l3267 32C6  
                                      i2l3277 32BE                                        i2l6301 3254  
                                      i2l7101 1BF2                                        i2l7111 1C36  
                                      i2l7103 1C00                                        i2l6321 320A  
                                      i2l7121 1C7A                                        i2l7113 1C44  
                                      i2l7105 1C10                                        i2l7041 1A50  
                                      i2l6315 323A                                        i2l6307 3224  
                                      i2l6323 320C                                        i2l7131 1CBE  
                                      i2l7123 1C88                                        i2l7115 1C54  
                                      i2l7107 1C14                                        i2l7051 1A9E  
                                      i2l7043 1A5E                                        i2l7035 1A22  
                                      i2l6309 3226                                        i2l7141 1D10  
                                      i2l7133 1CD0                                        i2l7125 1C98  
                                      i2l7117 1C58                                        i2l7109 1C28  
                                      i2l7061 1AE2                                        i2l7053 1AAC  
                                      i2l7045 1A70                                        i2l7037 1A30  
                                      i2l6335 3288                                        i2l6343 327C  
                                      i2l6351 329E                                        i2l7151 1D5E  
                                      i2l7143 1D1E                                        i2l7135 1CDE  
                                      i2l7127 1C9C                                        i2l7119 1C6C  
                                      i2l7071 1B26                                        i2l7063 1AF0  
                                      i2l7055 1ABC                                        i2l7047 1A7E  
                                      i2l7039 1A3E                                        i2l6273 32AE  
                                      i2l6281 325A                                        i2l6329 3220  
                                      i2l6337 328A                                        i2l6345 327E  
                                      i2l7161 1DB0                                        i2l7153 1D70  
                                      i2l7145 1D30                                        i2l7137 1CF0  
                                      i2l7129 1CB0                                        i2l7081 1B6A  
                                      i2l7073 1B34                                        i2l7065 1B00  
                                      i2l7057 1AC0                                        i2l7049 1A90  
                                      i2l6363 32BA                                        i2l6339 328E  
                                      i2l6347 3282                                        i2l6355 3270  
                                      i2l7171 1DFE                                        i2l7163 1DBE  
                                      i2l7155 1D7E                                        i2l7147 1D3E  
                                      i2l7139 1CFE                                        i2l7091 1BAE  
                                      i2l7083 1B78                                        i2l7075 1B44  
                                      i2l7067 1B04                                        i2l7059 1AD4  
                                      i2l6293 323E                                        i2l6357 3272  
                                      i2l7165 1DD0                                        i2l7157 1D90  
                                      i2l7149 1D50                                        i2l7093 1BBC  
                                      i2l7085 1B88                                        i2l7077 1B48  
                                      i2l7069 1B18                                        i2l6287 326E  
                                      i2l6279 3258                                        i2l6295 3240  
                                      i2l6359 3276                                        i2l7167 1DDE  
                                      i2l7159 1D9E                                        i2l7095 1BCC  
                                      i2l7087 1B8C                                        i2l7079 1B5C  
                                      i2l6369 32CA                                        i2l7169 1DF0  
                                      i2l7097 1BD0                                        i2l7089 1BA0  
                                      i2l7099 1BE4                                        _SPBRGH 0FB0  
                          ?_EUSART_ASYNC_Init 0045                                        _SSPADD 0FC8  
                                      _SSPBUF 0FC9                              __end_of___xxtofl 253A  
                               _tris_register 00A8                     gpio_port_write_logic@port 0006  
                 __end_of_dc_motor_move_right 2A84                        ?_gpio_port_write_logic 0002  
                         ??_EUSART_ASYNC_Init 0047                                     ??___fladd 0031  
                                   ??___fldiv 0018                                     ??___fltol 0006  
                                      clear_0 2FFA                                        clear_1 3006  
                                      isa$std 0001   _I2C_Report_Receive_Overflow_InterruptHandle 00E4  
                                   ?_CCP1_ISR 0001                                  __pdataCOMRAM 0075  
                                   ?_CCP2_ISR 0001                                  __mediumconst 0000  
                                      tblptrh 0FF7                                        tblptrl 0FF6  
                                      tblptru 0FF8                     __end_of_EUSART_ASYNC_Init 30BA  
                __end_of_EUSART_ASYNC_RX_Init 2D2C                  __end_of_EUSART_ASYNC_TX_Init 2DE0  
                                ___xxtofl@arg 000C                                  ___xxtofl@exp 000B  
                                ___xxtofl@val 0002                                    __accesstop 0080  
                     __end_of__initialization 300C                                     ?_INT0_ISR 0001  
                                   ?_INT1_ISR 0001                                     ?_INT2_ISR 0001  
                               ___rparam_used 0001                                    ___fltol@f1 0002  
                 dc_motor_move_left@_dc_motor 000C                             led_initialize@led 0010  
                           led_initialize@ret 0013                             RB5_ISR@RB5_Source 0001  
                      ??_gpio_pin_write_logic 0005                                __pcstackCOMRAM 0001  
                  _I2C_DefaultInterruptHandle 0057                                  __pidataBANK0 318E  
                    dc_motor_initialize@F3047 0072                      dc_motor_initialize@F3049 0071  
                                   ?_TMR0_ISR 0001                               ??_EUSART_RX_ISR 0001  
                                   ?_TMR1_ISR 0001                                     ?_TMR2_ISR 0001  
                                   ?_TMR3_ISR 0001                               ??_EUSART_TX_ISR 0001  
               dc_motor_initialize@motor_con1 0014                 dc_motor_initialize@motor_con2 0015  
                                  ??_CCP1_ISR 0001                                    ??_CCP2_ISR 0001  
                        __end_of_led_turn_off 2F48                      gpio_port_write_logic@ret 0005  
                                  __pbssBANK0 00C2                         _INT0_InterruptHandler 0055  
                                  ??_INT0_ISR 0001                                    ??_INT1_ISR 0001  
                                  ??_INT2_ISR 0001       EUSART_ASYNC_WriteStringBlocking@str_len 0005  
                                  ??_TMR0_ISR 0001                                    ??_TMR1_ISR 0001  
                                  ??_TMR2_ISR 0001                                    ??_TMR3_ISR 0001  
                           led_turn_off@F3058 0068                                       _ADC_ISR 32C6  
                 EUSART_ASYNC_TX_Init@_eusart 0002                      dc_motor_move_right@F3054 0070  
                    dc_motor_move_right@F3056 006F                             RB7_ISR@RB7_Source 0001  
                                     _RB4_ISR 3256                                       _RB5_ISR 323C  
                                     _RB6_ISR 3222                                       _RB7_ISR 3208  
                                   ?___xxtofl 0002                     _RB6_InterruptHandler_HIGH 00D8  
                               ?_MSSP_I2C_ISR 0001                             led_turn_on@object 000F  
                        led_turn_toggle@F3063 0067                              ??_led_initialize 0012  
             CCP_Compare_Mode_Set_Value@F3106 005B                                    _btn_values 1001  
                     dc_motor_stop@motor_con1 0010                       dc_motor_stop@motor_con2 0011  
                    _RB6_InterruptHandler_LOW 00D6                             ??_application_int 0048  
                           ??_MSSP_I2C_BC_ISR 0001                          _ADC_InterruptHandler 0061  
                                     __Hparam 0000                                       __Lparam 0000  
                       dc_motor_move_left@ret 000F                                       ___fladd 1560  
                                     ___fldiv 1E06                                       ___fltol 27AA  
           _EUSART_Baud_Rate_Calculation$5124 0041                          EUSART_ASYNC_Init@ret 0047  
            ??_EUSART_ASYNC_WriteByteBlocking 0002               ?_EUSART_ASYNC_WriteByteBlocking 0001  
                                __psmallconst 1000                          _EUSART_ASYNC_RX_Init 2C50  
                        _EUSART_ASYNC_TX_Init 2D2C                    __end_of_gpio_pin_intialize 2FB4  
                                     __pcinit 2FB4                                       __ramtop 1000  
                                     __ptext0 21A0                                       __ptext1 2E5C  
                                     __ptext2 2ED2                                       __ptext3 3102  
                                     __ptext4 28B0                                       __ptext5 299A  
                                     __ptext6 2A84                                       __ptext7 30BA  
                                     __ptext8 2DE0                                       __ptext9 3148  
                                   _T0CONbits 0FD5                                     _T1CONbits 0FCD  
                              ??_MSSP_I2C_ISR 0001                                     _T2CONbits 0FCA  
                                  ??___xxtofl 0006                                     _T3CONbits 0FB1  
  EUSART_Baud_Rate_Calculation@Baud_Rate_Temp 003D                                       main@ret 004C  
                              __pintcode_body 1A20                          end_of_initialization 300C  
         EUSART_ASYNC_WriteStringBlocking@ret 0009                                       int_func 1A20  
             ??_gpio_port_direction_intialize 0003                            dc_motor_stop@F3070 006B  
                          dc_motor_stop@F3068 006C                       ??_gpio_port_write_logic 0003  
                       gpio_pin_intialize@ret 000F                                 _dc_motor_stop 28B0  
                                   _RCSTAbits 0FAB                                       postdec1 0FE5  
                                     postdec2 0FDD                                       postinc0 0FEE  
                                     postinc2 0FDE                         ?_EUSART_ASYNC_RX_Init 0002  
                       ?_EUSART_ASYNC_TX_Init 0002                         _INT1_InterruptHandler 0053  
                                   _PORTBbits 0F81                              _InterruptManager 0008  
                                 ___fladd@grs 0038          __end_of_gpio_pin_direction_intialize 267E  
                _gpio_pin_direction_intialize 253A                                 ___xxtofl@sign 000A  
                                   _TRISCbits 0F94                                   ___fldiv@grs 0023  
                                 ___fldiv@rem 001C                                   _CCP1CONbits 0FBD  
                                 _CCP2CONbits 0FBA                                     _TXSTAbits 0FAC  
                              ?_dc_motor_stop 000C                                  _led_turn_off 2ED2  
                          relay_turn_on@F3047 0065                      EUSART_ASYNC_Init@_eusart 0045  
                                 _BAUDCONbits 0FB8                                 __pidataCOMRAM 3294  
                              _timer0_preload 0051                                _timer1_preload 004F  
          EUSART_ASYNC_ReadByteBlocking@_data 0002                                _timer2_preload 0063  
                         start_initialization 2FB4                                 ??_led_turn_on 000E  
                              _timer3_preload 004D           EUSART_Baud_Rate_Calculation@_eusart 0039  
               ?_gpio_pin_direction_intialize 0002                                  _lat_register 009E  
        __end_of_EUSART_Baud_Rate_Calculation 1560                  _EUSART_Baud_Rate_Calculation 1072  
                      dc_motor_stop@_dc_motor 000C                     _EUSART_RxInterruptHandler 00C6  
                     dc_motor_move_left@F3061 006E                       dc_motor_move_left@F3063 006D  
                             led_turn_off@led 000C                          __end_of_MSSP_I2C_ISR 32AA  
                  __end_of_dc_motor_move_left 2B6E         __end_of_gpio_port_direction_intialize 318E  
               _gpio_port_direction_intialize 3148                    _EUSART_FramingErrorHandler 00C4  
                      ??_EUSART_ASYNC_RX_Init 0004                        ??_EUSART_ASYNC_TX_Init 0004  
                                 __pdataBANK0 0080             gpio_port_direction_intialize@port 0006  
                                    ?_ADC_ISR 0001                         __end_of_EUSART_RX_ISR 32CC  
                       __end_of_EUSART_TX_ISR 32BE                                   _dc_mottor_1 007B  
                                 _dc_mottor_2 0079                              dc_motor_stop@ret 000F  
                                   ___fladd@a 002D                                     ___fladd@b 0029  
             ??_EUSART_ASYNC_ReadByteBlocking 0004                                     ___fldiv@a 0014  
                                   ___fldiv@b 0010                                      ?_RB4_ISR 0001  
                                    ?_RB5_ISR 0001                                      ?_RB6_ISR 0001  
                                    ?_RB7_ISR 0001                                   __pbssCOMRAM 004D  
 _I2C_Report_Write_Collision_InterruptHandler 0059                               _application_int 30BA  
                             _MSSP_I2C_BC_ISR 32AA                           __end_of_led_turn_on 2ED2  
                       _INT2_InterruptHandler 00E2                gpio_pin_write_logic@pin_config 0002  
             gpio_pin_direction_intialize@ret 000A                               ??_dc_motor_stop 000E  
               ?_EUSART_Baud_Rate_Calculation 0039                         _TMR0_InterruptHandler 00D0  
                                   __pintcode 0008                                      ?___fladd 0029  
                                    ?___fldiv 0010                                      ?___fltol 0002  
                   gpio_pin_write_logic@logic 0004                                   __smallconst 1000  
                   _RB4_InterruptHandler_HIGH 00E0                                      _CCP1_ISR 32C2  
                                    _CCP2_ISR 32BE                 dc_motor_move_right@motor_con1 0010  
               dc_motor_move_right@motor_con2 0011                     _RB7_InterruptHandler_HIGH 00D4  
                          _gpio_pin_intialize 2F48                ??_gpio_pin_direction_intialize 0004  
                    _RB5_InterruptHandler_LOW 00DA                                      _INT0_ISR 32B6  
                                    _INT1_ISR 32B2                                      _INT2_ISR 32AE  
                                    _RB4_Flag 0078                                      _RB5_Flag 0077  
                                    _RB6_Flag 0076                                      _RB7_Flag 0075  
                           RB4_ISR@RB4_Source 0001                           ?_gpio_pin_intialize 000C  
                    __end_of_InterruptManager 1E06                                      _PIE1bits 0F9D  
                                    _PIE2bits 0FA0                            led_turn_off@object 000F  
               __end_of_gpio_port_write_logic 3148                                      _PIR1bits 0F9E  
                                    i2u530_40 326A                                      i2u610_40 1A30  
                                    i2u530_41 3266                                      i2u610_41 1A2C  
                                    i2u531_40 3250                                      i2u611_40 1A3E  
                                    i2u531_41 324C                                      i2u611_41 1A3A  
                                    _PIR2bits 0FA1                                      i2u532_40 3236  
                                    i2u620_40 1AD4                                      i2u612_40 1A50  
                                    i2u532_41 3232                                      i2u620_41 1AD0  
                                    i2u612_41 1A4C                                      i2u533_40 321C  
                                    i2u621_40 1AE2                                      i2u613_40 1A5E  
                                    i2u533_41 3218                                      i2u621_41 1ADE  
                                    i2u613_41 1A5A                                      i2u630_40 1B78  
                                    i2u622_40 1AF0                                      i2u614_40 1A70  
                                    i2u630_41 1B74                                      i2u622_41 1AEC  
                                    i2u614_41 1A6C                                      i2u631_40 1B88  
                                    i2u623_40 1B00                                      i2u615_40 1A7E  
                                    i2u631_41 1B84                                      i2u623_41 1AFC  
                                    i2u615_41 1A7A                                      i2u640_40 1C28  
                                    i2u632_40 1BA0                                      i2u624_40 1B18  
                                    i2u616_40 1A90                                      i2u640_41 1C24  
                                    i2u632_41 1B9C                                      i2u624_41 1B14  
                                    i2u616_41 1A8C                                      i2u641_40 1C36  
                                    i2u633_40 1BAE                                      i2u625_40 1B26  
                                    i2u617_40 1A9E                                      i2u641_41 1C32  
                                    i2u633_41 1BAA                                      i2u625_41 1B22  
                                    i2u617_41 1A9A                                      i2u650_40 1CD0  
                                    i2u642_40 1C44                                      i2u634_40 1BBC  
                                    i2u626_40 1B34                                      i2u618_40 1AAC  
                                    i2u650_41 1CCC                                      i2u642_41 1C40  
                                    i2u634_41 1BB8                                      i2u626_41 1B30  
                                    i2u618_41 1AA8                                      i2u651_40 1CDE  
                                    i2u643_40 1C54                                      i2u635_40 1BCC  
                                    i2u627_40 1B44                                      i2u619_40 1ABC  
                                    i2u651_41 1CDA                                      i2u643_41 1C50  
                                    i2u635_41 1BC8                                      i2u627_41 1B40  
                                    i2u619_41 1AB8                                      i2u660_40 1D70  
                                    i2u652_40 1CF0                                      i2u644_40 1C6C  
                                    i2u636_40 1BE4                                      i2u628_40 1B5C  
                                    i2u660_41 1D6C                                      i2u652_41 1CEC  
                                    i2u644_41 1C68                                      i2u636_41 1BE0  
                                    i2u628_41 1B58                                      i2u661_40 1D7E  
                                    i2u653_40 1CFE                                      i2u645_40 1C7A  
                                    i2u637_40 1BF2                                      i2u629_40 1B6A  
                                    i2u661_41 1D7A                                      i2u653_41 1CFA  
                                    i2u645_41 1C76                                      i2u637_41 1BEE  
                                    i2u629_41 1B66                                      i2u662_40 1D90  
                                    i2u654_40 1D10                                      i2u646_40 1C88  
                                    i2u638_40 1C00                                      i2u662_41 1D8C  
                                    i2u654_41 1D0C                                      i2u646_41 1C84  
                                    i2u638_41 1BFC                                      i2u663_40 1D9E  
                                    i2u655_40 1D1E                                      i2u647_40 1C98  
                                    i2u639_40 1C10                                      i2u663_41 1D9A  
                                    i2u655_41 1D1A                                      i2u647_41 1C94  
                                    i2u639_41 1C0C                                      i2u664_40 1DB0  
                                    i2u656_40 1D30                                      i2u648_40 1CB0  
                                    i2u664_41 1DAC                                      i2u656_41 1D2C  
                                    i2u648_41 1CAC                                      i2u665_40 1DBE  
                                    i2u657_40 1D3E                                      i2u649_40 1CBE  
                                    i2u665_41 1DBA                                      i2u657_41 1D3A  
                                    i2u649_41 1CBA                                      i2u666_40 1DD0  
                                    i2u658_40 1D50                                      i2u666_41 1DCC  
                                    i2u658_41 1D4C                                      i2u667_40 1DDE  
                                    i2u659_40 1D5E                                      i2u667_41 1DDA  
                                    i2u659_41 1D5A                                      i2u668_40 1DF0  
                                    i2u668_41 1DEC                                      i2u669_40 1DFE  
                                    i2u669_41 1DFA                  dc_motor_move_left@motor_con1 0010  
                dc_motor_move_left@motor_con2 0011                           _dc_motor_initialize 2B6E  
                dc_motor_initialize@_dc_motor 0010                                      _TMR0_ISR 3288  
                                    _TMR1_ISR 327C                                      _TMR2_ISR 329E  
                                    _TMR3_ISR 3270                       __end_of_application_int 3102  
         EUSART_ASYNC_WriteByteBlocking@_data 0002                                    _ADCON0bits 0FC2  
                                  _ADCON1bits 0FC1                                    _ADCON2bits 0FC0  
                     __end_of_MSSP_I2C_BC_ISR 32AE                          ??_gpio_pin_intialize 000E  
                                 _led_turn_on 2E5C                          ?_dc_motor_initialize 0010  
       __end_of_EUSART_ASYNC_ReadByteBlocking 31EE                 _EUSART_ASYNC_ReadByteBlocking 31D0  
                     gpio_pin_write_logic@ret 000B                                   _INTCON2bits 0FF1  
                                 _INTCON3bits 0FF0                                     copy_data0 2FC8  
                                   copy_data1 2FE8         EUSART_ASYNC_WriteStringBlocking@_data 0003  
                         _dc_motor_move_right 299A                                    _EECON1bits 0FA6  
                              led_turn_on@led 000C                                      __Hrparam 0000  
                                    __Lrparam 0000                ??_EUSART_Baud_Rate_Calculation 003B  
                 EUSART_ASYNC_RX_Init@_eusart 0002              gpio_port_direction_intialize@ret 0005  
                           RB6_ISR@RB6_Source 0001                         _CCP1_InterruptHandler 005F  
                        ?_dc_motor_move_right 000C                            __end_of_btn_values 1011  
                       _TMR1_InterruptHandler 00CE                                      ___xxtofl 2386  
                                _MSSP_I2C_ISR 32A6                         ??_dc_motor_initialize 0012  
                                    __ptext10 2B6E                                      __ptext11 2F48  
                                    __ptext20 2D2C                                      __ptext12 267E  
                                    __ptext21 2C50                                      __ptext13 253A  
                                    __ptext30 3208                                      __ptext22 3016  
                                    __ptext14 306C                                      __ptext31 3222  
                                    __ptext23 31EE                                      __ptext15 1072  
                                    __ptext40 32CA                                      __ptext32 323C  
                                    __ptext24 31D0                                      __ptext16 2386  
                                    __ptext41 32BE                                      __ptext33 3256  
                                    __ptext17 27AA                                      __ptext42 32C2  
                                    __ptext34 32A6                                      __ptext26 3270  
                                    __ptext18 1E06                                      __ptext43 32C6  
                                    __ptext35 32AA                                      __ptext27 329E  
                                    __ptext19 1560                                      __ptext36 32AE  
                                    __ptext28 327C                                      __ptext37 32B2  
                                    __ptext29 3288                                      __ptext38 32B6  
                                    __ptext39 32BA                        dc_motor_move_right@ret 000F  
                gpio_pin_intialize@pin_config 000C      __end_of_EUSART_ASYNC_WriteStringBlocking 306C  
          ??_EUSART_ASYNC_WriteStringBlocking 0007             ?_EUSART_ASYNC_WriteStringBlocking 0003  
            _EUSART_ASYNC_WriteStringBlocking 3016                                      isa$xinst 0000  
                                    int$flags 007E                         ??_dc_motor_move_right 000E  
                            ?_application_int 0001                              ?_MSSP_I2C_BC_ISR 0001  
                          _dc_motor_move_left 2A84                                    _INTCONbits 0FF2  
                __end_of_gpio_pin_write_logic 27AA                           ?_dc_motor_move_left 000C  
                                    intlevel2 0000                ?_EUSART_ASYNC_ReadByteBlocking 0002  
                   _EUSART_TxInterruptHandler 00C8        gpio_pin_direction_intialize@pin_config 0002  
                        ??_dc_motor_move_left 000E                  dc_motor_move_right@_dc_motor 000C  
                                 _SSPCON1bits 0FC6                                   _SSPCON2bits 0FC5  
                  gpio_port_write_logic@logic 0002                                 ___fladd@signs 0035  
                       _CCP2_InterruptHandler 005D                                 _port_register 0094  
                                ___fladd@aexp 0036                                  ___fladd@bexp 0037  
                       _TMR2_InterruptHandler 00CC                             ?_InterruptManager 0001  
                       __end_of_dc_motor_stop 299A                                _led_initialize 2DE0  
